ARM GAS  C:\Users\GITUD\AppData\Local\Temp\ccH4oFP5.s 			page 1


   1              		.syntax unified
   2              		.cpu cortex-m3
   3              		.fpu softvfp
   4              		.eabi_attribute 20, 1
   5              		.eabi_attribute 21, 1
   6              		.eabi_attribute 23, 3
   7              		.eabi_attribute 24, 1
   8              		.eabi_attribute 25, 1
   9              		.eabi_attribute 26, 1
  10              		.eabi_attribute 30, 1
  11              		.eabi_attribute 34, 1
  12              		.eabi_attribute 18, 4
  13              		.thumb
  14              		.syntax unified
  15              		.file	"main.c"
  16              		.text
  17              	.Ltext0:
  18              		.cfi_sections	.debug_frame
  19              		.global	__aeabi_i2d
  20              		.global	__aeabi_dmul
  21              		.global	__aeabi_dadd
  22              		.global	__aeabi_d2uiz
  23              		.section	.text.Int_dato,"ax",%progbits
  24              		.align	2
  25              		.global	Int_dato
  26              		.thumb
  27              		.thumb_func
  28              		.type	Int_dato, %function
  29              	Int_dato:
  30              	.LFB66:
  31              		.file 1 "main.c"
   1:main.c        **** /* ========================================
   2:main.c        ****  *
   3:main.c        ****  * Copyright YOUR COMPANY, THE YEAR
   4:main.c        ****  * All Rights Reserved
   5:main.c        ****  * UNPUBLISHED, LICENSED SOFTWARE.
   6:main.c        ****  *
   7:main.c        ****  * CONFIDENTIAL AND PROPRIETARY INFORMATION
   8:main.c        ****  * WHICH IS THE PROPERTY OF your company.
   9:main.c        ****  *
  10:main.c        ****  * ========================================
  11:main.c        **** *Mecanica 
  12:main.c        **** Modo Nomal
  13:main.c        **** Se configura el ADC en modo continuo, para que muestre con una frecuentcia de 10 K Hz con 8 bit( po
  14:main.c        **** Una vez el ADC Termina la conversion el DMA Lo pasa al arreglo Muestra[]
  15:main.c        **** Cuando el DMA termina la transacion la interrupcion INT_dato se ejecuta y calcula el valor de la sa
  16:main.c        **** Este valor un tiempo despues es cargado al DMA Y de este al DAC
  17:main.c        **** Cambio de parametros
  18:main.c        **** Cuando se seleccione una frecuencia diferente o se cambia la naturaleza del filrtro
  19:main.c        **** se llama la funcion coeficientes. Esta detiene el ADC por ende toda la cadena
  20:main.c        **** hasta calcular los coeficientes, una vez los tenga vuleve al modo normal. Se utiliza la libreria MA
  21:main.c        **** */
  22:main.c        **** #include "project.h"
  23:main.c        **** #include <math.h>
  24:main.c        **** 
  25:main.c        **** 
  26:main.c        **** #define BUFFER 511
ARM GAS  C:\Users\GITUD\AppData\Local\Temp\ccH4oFP5.s 			page 2


  27:main.c        **** #define PI 3.14159265
  28:main.c        **** #define ORDEN 10   
  29:main.c        **** 
  30:main.c        ****     /* Defines for DMA_OUT */
  31:main.c        **** #define DMA_OUT_BYTES_PER_BURST 1
  32:main.c        **** #define DMA_OUT_REQUEST_PER_BURST 1
  33:main.c        **** #define DMA_OUT_SRC_BASE (CYDEV_SRAM_BASE)
  34:main.c        **** #define DMA_OUT_DST_BASE (CYDEV_PERIPH_BASE)
  35:main.c        **** 
  36:main.c        **** /* Variable declarations for DMA_OUT */
  37:main.c        **** /* Move these variable declarations to the top of the function */
  38:main.c        **** uint8 DMA_OUT_Chan;
  39:main.c        **** uint8 DMA_OUT_TD[1];
  40:main.c        **** 
  41:main.c        **** 
  42:main.c        **** /* Defines for DMA_IN */
  43:main.c        **** #define DMA_IN_BYTES_PER_BURST 1
  44:main.c        **** #define DMA_IN_REQUEST_PER_BURST 1
  45:main.c        **** #define DMA_IN_SRC_BASE (CYDEV_PERIPH_BASE)
  46:main.c        **** #define DMA_IN_DST_BASE (CYDEV_SRAM_BASE)
  47:main.c        **** 
  48:main.c        **** /* Variable declarations for DMA_IN */
  49:main.c        **** /* Move these variable declarations to the top of the function */
  50:main.c        **** uint8 DMA_IN_Chan;
  51:main.c        **** uint8 DMA_IN_TD[1];
  52:main.c        **** 
  53:main.c        **** volatile uint16 frecuenciaux=0;
  54:main.c        **** volatile uint8 de=0,de2=0,clase=0;
  55:main.c        **** volatile uint16 frecuencia=100;
  56:main.c        **** 
  57:main.c        **** uint8 Muestra[BUFFER]={0};
  58:main.c        **** uint8 Salida[BUFFER]={0};
  59:main.c        **** 
  60:main.c        **** 
  61:main.c        **** uint8 cont=0;
  62:main.c        **** double bk[ORDEN];
  63:main.c        **** 
  64:main.c        **** 
  65:main.c        **** void coeficientes(){
  66:main.c        **** 
  67:main.c        ****         double fc,fd;
  68:main.c        ****         fc=2*PI*(frecuencia/20000+0.165);
  69:main.c        ****     switch(clase){
  70:main.c        ****         case 0:
  71:main.c        ****         //Calculo pasa bajos
  72:main.c        ****         bk[0]=2*fc;
  73:main.c        ****          for (uint8 i=1;i<ORDEN;i++){
  74:main.c        ****         bk[i]=(sin(fc*i)/(ORDEN*PI));
  75:main.c        ****             }
  76:main.c        ****         break;
  77:main.c        ****         case 1:
  78:main.c        ****         // Calculo pasa altos
  79:main.c        ****         bk[0]=1-2*fc;
  80:main.c        ****          for (uint8 i=1;i<ORDEN;i++){
  81:main.c        ****         bk[i]=(-sin(fc*i)/(ORDEN*PI));
  82:main.c        ****             }
  83:main.c        ****         break;
ARM GAS  C:\Users\GITUD\AppData\Local\Temp\ccH4oFP5.s 			page 3


  84:main.c        ****         case 2:
  85:main.c        ****         // Calculo pasa banda
  86:main.c        ****         fd=2*PI*((frecuencia-10)/20000-0.165);
  87:main.c        ****           bk[0]=1-2*(fc-fd);
  88:main.c        ****          for (uint8 i=1;i<ORDEN;i++){
  89:main.c        ****             bk[i]=((sin(fc*i)-sin(fd*i))/(ORDEN*PI));
  90:main.c        ****             }
  91:main.c        ****         break;
  92:main.c        ****         default:
  93:main.c        ****         break;
  94:main.c        ****     }
  95:main.c        ****     
  96:main.c        **** 
  97:main.c        **** 
  98:main.c        **** }
  99:main.c        **** 
 100:main.c        **** void visual(uint8 numero){
 101:main.c        ****     if(numero==10){  
 102:main.c        ****         //Enter
 103:main.c        ****         if(de==0){
 104:main.c        ****         frecuencia=frecuenciaux;
 105:main.c        ****         frecuenciaux=0;
 106:main.c        ****         de=1;
 107:main.c        ****         coeficientes();    
 108:main.c        ****         }
 109:main.c        ****     }else{
 110:main.c        ****         de=0;
 111:main.c        ****             if(frecuenciaux==0){
 112:main.c        ****                 frecuenciaux=numero;
 113:main.c        ****             }else{
 114:main.c        ****                 frecuenciaux=frecuenciaux*10+numero;
 115:main.c        ****                 if(frecuenciaux>100){
 116:main.c        ****                     //Timer_Stop();
 117:main.c        ****                 if(frecuenciaux>1000){
 118:main.c        ****                     frecuencia=1000;
 119:main.c        ****                     frecuenciaux=0;
 120:main.c        ****                     de=1;
 121:main.c        ****                 }
 122:main.c        ****                 }
 123:main.c        ****         }
 124:main.c        ****     } 
 125:main.c        ****     LCD_Position(1,10);
 126:main.c        ****     LCD_PrintString("    ");
 127:main.c        ****     LCD_Position(1,10);
 128:main.c        ****     if(de==0){
 129:main.c        ****         LCD_PrintNumber(frecuenciaux);
 130:main.c        ****     }else{
 131:main.c        ****         LCD_PrintNumber(frecuencia);
 132:main.c        ****     }
 133:main.c        **** }
 134:main.c        **** 
 135:main.c        **** CY_ISR(Int_SW){
 136:main.c        ****     //ADC_StopConvert();
 137:main.c        ****     uint8 temp=SW_Read();
 138:main.c        ****     Control_Write(0);
 139:main.c        ****     switch(SW_Read()) {
 140:main.c        ****             case 0b00001110:
ARM GAS  C:\Users\GITUD\AppData\Local\Temp\ccH4oFP5.s 			page 4


 141:main.c        ****             switch(P0_Read()) {
 142:main.c        ****                     case 0xE:
 143:main.c        ****                     visual(1);
 144:main.c        ****                     break;
 145:main.c        ****                     case 0xD:
 146:main.c        ****                     visual(2);
 147:main.c        ****                     break;
 148:main.c        ****                      case 0xB:
 149:main.c        ****                     visual(3);
 150:main.c        ****                     break;
 151:main.c        ****                     case 0x7:
 152:main.c        ****                     LCD_Position(0,7);
 153:main.c        ****                     LCD_PrintString("PasaBajos");
 154:main.c        ****                     clase=0;
 155:main.c        ****                     coeficientes();
 156:main.c        ****                     break;
 157:main.c        ****                     default:
 158:main.c        ****                     break;
 159:main.c        ****                 }
 160:main.c        ****                     break;
 161:main.c        ****                 case 0b00001101:
 162:main.c        ****             switch(P0_Read()) {
 163:main.c        ****                     case 0xE:
 164:main.c        ****                     visual(4);
 165:main.c        ****                     break;
 166:main.c        ****                     case 0xD:
 167:main.c        ****                     visual(5);
 168:main.c        ****                     break;
 169:main.c        ****                     case 0xB:
 170:main.c        ****                     visual(6);
 171:main.c        ****                     break;
 172:main.c        ****                     case 0x7:
 173:main.c        ****                     LCD_Position(0,7);
 174:main.c        ****                     LCD_PrintString("PasaAltos");
 175:main.c        ****                     clase=1;
 176:main.c        ****                     coeficientes();
 177:main.c        ****                     break;
 178:main.c        ****                     default:
 179:main.c        ****                     break;   
 180:main.c        ****                 }
 181:main.c        ****                     break;
 182:main.c        ****                 case 0b00001011:            
 183:main.c        ****                     switch(P0_Read()) {
 184:main.c        ****                     case 0xE:
 185:main.c        ****                     visual(7);
 186:main.c        ****                     break;
 187:main.c        ****                     case 0xD:
 188:main.c        ****                     visual(8);
 189:main.c        ****                     break;
 190:main.c        ****                      case 0xB:
 191:main.c        ****                     visual(9);
 192:main.c        ****                     break;
 193:main.c        ****                     case 0x7:
 194:main.c        ****                     LCD_Position(0,7);
 195:main.c        ****                     LCD_PrintString("PasaBanda");
 196:main.c        ****                     clase=2;
 197:main.c        ****                     break;
ARM GAS  C:\Users\GITUD\AppData\Local\Temp\ccH4oFP5.s 			page 5


 198:main.c        ****                     default:
 199:main.c        ****                     break;   
 200:main.c        ****                 }
 201:main.c        ****                     break;
 202:main.c        ****                 case 0b000000111:
 203:main.c        ****                     switch(P0_Read()) {
 204:main.c        ****                     //case 0xE:
 205:main.c        ****                     //LCD_Position(0,1);    
 206:main.c        ****                     //LCD_PrintString("*");
 207:main.c        ****                     //break;
 208:main.c        ****                     case 0xD:
 209:main.c        ****                         //
 210:main.c        ****                         de2=!de2;
 211:main.c        ****                     break;
 212:main.c        ****                     visual(0);//Enter D
 213:main.c        ****                     case 0x7:
 214:main.c        ****                         visual(10);
 215:main.c        ****                     break;
 216:main.c        ****                     default:
 217:main.c        ****                     break;   
 218:main.c        ****                 }
 219:main.c        ****                     break;
 220:main.c        ****                 default:
 221:main.c        ****                 break;
 222:main.c        ****     }
 223:main.c        ****     while(SW_Read()==temp);
 224:main.c        ****     //ADC_StartConvert();
 225:main.c        ****     Control_Write(1);
 226:main.c        ****     SW_ClearInterrupt();
 227:main.c        ****     
 228:main.c        **** }
 229:main.c        **** 
 230:main.c        **** CY_ISR(Int_dato){
  32              		.loc 1 230 0
  33              		.cfi_startproc
  34              		@ args = 0, pretend = 0, frame = 0
  35              		@ frame_needed = 0, uses_anonymous_args = 0
  36 0000 2DE9F843 		push	{r3, r4, r5, r6, r7, r8, r9, lr}
  37              		.cfi_def_cfa_offset 32
  38              		.cfi_offset 3, -32
  39              		.cfi_offset 4, -28
  40              		.cfi_offset 5, -24
  41              		.cfi_offset 6, -20
  42              		.cfi_offset 7, -16
  43              		.cfi_offset 8, -12
  44              		.cfi_offset 9, -8
  45              		.cfi_offset 14, -4
  46              	.LVL0:
  47              	.LBB2:
 231:main.c        ****     
 232:main.c        ****     /*if(de2==0){
 233:main.c        ****     for(uint16 i=0;i<=BUFFER;i++){
 234:main.c        ****         Salida[i]=Muestra[i];}
 235:main.c        ****     }else{*/
 236:main.c        ****         double aux=0;
 237:main.c        ****         
 238:main.c        ****         for(uint16 n=0;n<ORDEN;n++){             
ARM GAS  C:\Users\GITUD\AppData\Local\Temp\ccH4oFP5.s 			page 6


  48              		.loc 1 238 0
  49 0004 0025     		movs	r5, #0
  50              	.LBE2:
 236:main.c        ****         
  51              		.loc 1 236 0
  52 0006 0026     		movs	r6, #0
  53 0008 0027     		movs	r7, #0
  54              	.LBB5:
  55              		.loc 1 238 0
  56 000a 28E0     		b	.L2
  57              	.LVL1:
  58              	.L3:
  59              	.LBB3:
 239:main.c        ****             for(uint16 k=0;k<ORDEN;k++){
 240:main.c        ****                 aux=aux+bk[k]*Muestra[BUFFER-n-k];
  60              		.loc 1 240 0 discriminator 3
  61 000c 2B4B     		ldr	r3, .L11
  62 000e 03EBC403 		add	r3, r3, r4, lsl #3
  63 0012 D3E90089 		ldrd	r8, [r3]
  64 0016 C5F5FF73 		rsb	r3, r5, #510
  65 001a 0133     		adds	r3, r3, #1
  66 001c 1B1B     		subs	r3, r3, r4
  67 001e 284A     		ldr	r2, .L11+4
  68 0020 D05C     		ldrb	r0, [r2, r3]	@ zero_extendqisi2
  69 0022 FFF7FEFF 		bl	__aeabi_i2d
  70              	.LVL2:
  71 0026 4246     		mov	r2, r8
  72 0028 4B46     		mov	r3, r9
  73 002a FFF7FEFF 		bl	__aeabi_dmul
  74              	.LVL3:
  75 002e 0246     		mov	r2, r0
  76 0030 0B46     		mov	r3, r1
  77 0032 3046     		mov	r0, r6
  78 0034 3946     		mov	r1, r7
  79 0036 FFF7FEFF 		bl	__aeabi_dadd
  80              	.LVL4:
  81 003a 0646     		mov	r6, r0
  82              	.LVL5:
  83 003c 0F46     		mov	r7, r1
  84              	.LVL6:
 239:main.c        ****             for(uint16 k=0;k<ORDEN;k++){
  85              		.loc 1 239 0 discriminator 3
  86 003e 0134     		adds	r4, r4, #1
  87              	.LVL7:
  88 0040 A4B2     		uxth	r4, r4
  89              	.LVL8:
  90 0042 00E0     		b	.L4
  91              	.LVL9:
  92              	.L8:
  93              	.LBE3:
  94 0044 0024     		movs	r4, #0
  95              	.L4:
  96              	.LVL10:
  97              	.LBB4:
 239:main.c        ****             for(uint16 k=0;k<ORDEN;k++){
  98              		.loc 1 239 0 is_stmt 0 discriminator 1
  99 0046 092C     		cmp	r4, #9
ARM GAS  C:\Users\GITUD\AppData\Local\Temp\ccH4oFP5.s 			page 7


 100 0048 E0D9     		bls	.L3
 101              	.LBE4:
 241:main.c        ****             
 242:main.c        ****             }
 243:main.c        ****                Salida[n]=(char)aux;
 102              		.loc 1 243 0 is_stmt 1 discriminator 2
 103 004a 3046     		mov	r0, r6
 104 004c 3946     		mov	r1, r7
 105 004e FFF7FEFF 		bl	__aeabi_d2uiz
 106              	.LVL11:
 107 0052 1B4B     		ldr	r3, .L11+4
 108 0054 2B44     		add	r3, r3, r5
 109 0056 83F80002 		strb	r0, [r3, #512]
 238:main.c        ****             for(uint16 k=0;k<ORDEN;k++){
 110              		.loc 1 238 0 discriminator 2
 111 005a 0135     		adds	r5, r5, #1
 112              	.LVL12:
 113 005c ADB2     		uxth	r5, r5
 114              	.LVL13:
 115              	.L2:
 238:main.c        ****             for(uint16 k=0;k<ORDEN;k++){
 116              		.loc 1 238 0 is_stmt 0 discriminator 1
 117 005e 092D     		cmp	r5, #9
 118 0060 F0D9     		bls	.L8
 119 0062 0A25     		movs	r5, #10
 120              	.LVL14:
 121 0064 25E0     		b	.L5
 122              	.LVL15:
 123              	.L6:
 124              	.LBE5:
 125              	.LBB6:
 126              	.LBB7:
 244:main.c        ****         }
 245:main.c        ****     
 246:main.c        ****         for(uint16 n=ORDEN;n<BUFFER;n++){             
 247:main.c        ****             for(uint16 k=0;k<ORDEN;k++){
 248:main.c        ****                 aux=aux+bk[k]*Muestra[n-k];
 127              		.loc 1 248 0 is_stmt 1 discriminator 3
 128 0066 154B     		ldr	r3, .L11
 129 0068 03EBC403 		add	r3, r3, r4, lsl #3
 130 006c D3E90089 		ldrd	r8, [r3]
 131 0070 2B1B     		subs	r3, r5, r4
 132 0072 134A     		ldr	r2, .L11+4
 133 0074 D05C     		ldrb	r0, [r2, r3]	@ zero_extendqisi2
 134 0076 FFF7FEFF 		bl	__aeabi_i2d
 135              	.LVL16:
 136 007a 4246     		mov	r2, r8
 137 007c 4B46     		mov	r3, r9
 138 007e FFF7FEFF 		bl	__aeabi_dmul
 139              	.LVL17:
 140 0082 0246     		mov	r2, r0
 141 0084 0B46     		mov	r3, r1
 142 0086 3046     		mov	r0, r6
 143 0088 3946     		mov	r1, r7
 144 008a FFF7FEFF 		bl	__aeabi_dadd
 145              	.LVL18:
 146 008e 0646     		mov	r6, r0
ARM GAS  C:\Users\GITUD\AppData\Local\Temp\ccH4oFP5.s 			page 8


 147              	.LVL19:
 148 0090 0F46     		mov	r7, r1
 149              	.LVL20:
 247:main.c        ****                 aux=aux+bk[k]*Muestra[n-k];
 150              		.loc 1 247 0 discriminator 3
 151 0092 0134     		adds	r4, r4, #1
 152              	.LVL21:
 153 0094 A4B2     		uxth	r4, r4
 154              	.LVL22:
 155 0096 00E0     		b	.L7
 156              	.LVL23:
 157              	.L9:
 158              	.LBE7:
 159 0098 0024     		movs	r4, #0
 160              	.L7:
 161              	.LVL24:
 162              	.LBB8:
 247:main.c        ****                 aux=aux+bk[k]*Muestra[n-k];
 163              		.loc 1 247 0 is_stmt 0 discriminator 1
 164 009a 092C     		cmp	r4, #9
 165 009c E3D9     		bls	.L6
 166              	.LBE8:
 249:main.c        ****             
 250:main.c        ****             }
 251:main.c        ****                Salida[n]=(char)aux;
 167              		.loc 1 251 0 is_stmt 1 discriminator 2
 168 009e 3046     		mov	r0, r6
 169 00a0 3946     		mov	r1, r7
 170 00a2 FFF7FEFF 		bl	__aeabi_d2uiz
 171              	.LVL25:
 172 00a6 064B     		ldr	r3, .L11+4
 173 00a8 2B44     		add	r3, r3, r5
 174 00aa 83F80002 		strb	r0, [r3, #512]
 246:main.c        ****             for(uint16 k=0;k<ORDEN;k++){
 175              		.loc 1 246 0 discriminator 2
 176 00ae 0135     		adds	r5, r5, #1
 177              	.LVL26:
 178 00b0 ADB2     		uxth	r5, r5
 179              	.LVL27:
 180              	.L5:
 246:main.c        ****             for(uint16 k=0;k<ORDEN;k++){
 181              		.loc 1 246 0 is_stmt 0 discriminator 1
 182 00b2 B5F5FF7F 		cmp	r5, #510
 183 00b6 EFD9     		bls	.L9
 184              	.LBE6:
 252:main.c        ****         }
 253:main.c        ****     //}
 254:main.c        **** }
 185              		.loc 1 254 0 is_stmt 1
 186 00b8 BDE8F883 		pop	{r3, r4, r5, r6, r7, r8, r9, pc}
 187              	.LVL28:
 188              	.L12:
 189              		.align	2
 190              	.L11:
 191 00bc 00000000 		.word	bk
 192 00c0 00000000 		.word	.LANCHOR0
 193              		.cfi_endproc
ARM GAS  C:\Users\GITUD\AppData\Local\Temp\ccH4oFP5.s 			page 9


 194              	.LFE66:
 195              		.size	Int_dato, .-Int_dato
 196              		.global	__aeabi_ddiv
 197              		.global	__aeabi_dsub
 198              		.section	.text.coeficientes,"ax",%progbits
 199              		.align	2
 200              		.global	coeficientes
 201              		.thumb
 202              		.thumb_func
 203              		.type	coeficientes, %function
 204              	coeficientes:
 205              	.LFB63:
  65:main.c        **** 
 206              		.loc 1 65 0
 207              		.cfi_startproc
 208              		@ args = 0, pretend = 0, frame = 8
 209              		@ frame_needed = 0, uses_anonymous_args = 0
 210 0000 2DE9F047 		push	{r4, r5, r6, r7, r8, r9, r10, lr}
 211              		.cfi_def_cfa_offset 32
 212              		.cfi_offset 4, -32
 213              		.cfi_offset 5, -28
 214              		.cfi_offset 6, -24
 215              		.cfi_offset 7, -20
 216              		.cfi_offset 8, -16
 217              		.cfi_offset 9, -12
 218              		.cfi_offset 10, -8
 219              		.cfi_offset 14, -4
 220 0004 82B0     		sub	sp, sp, #8
 221              		.cfi_def_cfa_offset 40
  68:main.c        ****     switch(clase){
 222              		.loc 1 68 0
 223 0006 6A4B     		ldr	r3, .L25+24
 224 0008 1888     		ldrh	r0, [r3]
 225 000a 83B2     		uxth	r3, r0
 226 000c 6948     		ldr	r0, .L25+28
 227 000e A0FB0330 		umull	r3, r0, r0, r3
 228 0012 800B     		lsrs	r0, r0, #14
 229 0014 FFF7FEFF 		bl	__aeabi_i2d
 230              	.LVL29:
 231 0018 5FA3     		adr	r3, .L25
 232 001a D3E90023 		ldrd	r2, [r3]
 233 001e FFF7FEFF 		bl	__aeabi_dadd
 234              	.LVL30:
 235 0022 5FA3     		adr	r3, .L25+8
 236 0024 D3E90023 		ldrd	r2, [r3]
 237 0028 FFF7FEFF 		bl	__aeabi_dmul
 238              	.LVL31:
 239 002c 0446     		mov	r4, r0
 240 002e 0D46     		mov	r5, r1
 241              	.LVL32:
  69:main.c        ****         case 0:
 242              		.loc 1 69 0
 243 0030 614B     		ldr	r3, .L25+32
 244 0032 93F8FF33 		ldrb	r3, [r3, #1023]	@ zero_extendqisi2
 245 0036 DBB2     		uxtb	r3, r3
 246 0038 012B     		cmp	r3, #1
 247 003a 24D0     		beq	.L15
ARM GAS  C:\Users\GITUD\AppData\Local\Temp\ccH4oFP5.s 			page 10


 248 003c 13B1     		cbz	r3, .L16
 249 003e 022B     		cmp	r3, #2
 250 0040 4BD0     		beq	.L17
 251 0042 A6E0     		b	.L13
 252              	.L16:
  72:main.c        ****          for (uint8 i=1;i<ORDEN;i++){
 253              		.loc 1 72 0
 254 0044 0246     		mov	r2, r0
 255 0046 0B46     		mov	r3, r1
 256 0048 FFF7FEFF 		bl	__aeabi_dadd
 257              	.LVL33:
 258 004c 5B4B     		ldr	r3, .L25+36
 259 004e C3E90001 		strd	r0, [r3]
 260              	.LVL34:
 261              	.LBB9:
  73:main.c        ****         bk[i]=(sin(fc*i)/(ORDEN*PI));
 262              		.loc 1 73 0
 263 0052 0126     		movs	r6, #1
 264 0054 14E0     		b	.L18
 265              	.LVL35:
 266              	.L19:
  74:main.c        ****             }
 267              		.loc 1 74 0 discriminator 3
 268 0056 3046     		mov	r0, r6
 269 0058 FFF7FEFF 		bl	__aeabi_i2d
 270              	.LVL36:
 271 005c 2246     		mov	r2, r4
 272 005e 2B46     		mov	r3, r5
 273 0060 FFF7FEFF 		bl	__aeabi_dmul
 274              	.LVL37:
 275 0064 FFF7FEFF 		bl	sin
 276              	.LVL38:
 277 0068 4FA3     		adr	r3, .L25+16
 278 006a D3E90023 		ldrd	r2, [r3]
 279 006e FFF7FEFF 		bl	__aeabi_ddiv
 280              	.LVL39:
 281 0072 524B     		ldr	r3, .L25+36
 282 0074 03EBC603 		add	r3, r3, r6, lsl #3
 283 0078 C3E90001 		strd	r0, [r3]
  73:main.c        ****         bk[i]=(sin(fc*i)/(ORDEN*PI));
 284              		.loc 1 73 0 discriminator 3
 285 007c 0136     		adds	r6, r6, #1
 286              	.LVL40:
 287 007e F6B2     		uxtb	r6, r6
 288              	.LVL41:
 289              	.L18:
  73:main.c        ****         bk[i]=(sin(fc*i)/(ORDEN*PI));
 290              		.loc 1 73 0 is_stmt 0 discriminator 1
 291 0080 092E     		cmp	r6, #9
 292 0082 E8D9     		bls	.L19
 293 0084 85E0     		b	.L13
 294              	.LVL42:
 295              	.L15:
 296              	.LBE9:
  79:main.c        ****          for (uint8 i=1;i<ORDEN;i++){
 297              		.loc 1 79 0 is_stmt 1
 298 0086 0246     		mov	r2, r0
ARM GAS  C:\Users\GITUD\AppData\Local\Temp\ccH4oFP5.s 			page 11


 299 0088 0B46     		mov	r3, r1
 300 008a FFF7FEFF 		bl	__aeabi_dadd
 301              	.LVL43:
 302 008e 0246     		mov	r2, r0
 303 0090 0B46     		mov	r3, r1
 304 0092 0020     		movs	r0, #0
 305 0094 4A49     		ldr	r1, .L25+40
 306 0096 FFF7FEFF 		bl	__aeabi_dsub
 307              	.LVL44:
 308 009a 484B     		ldr	r3, .L25+36
 309 009c C3E90001 		strd	r0, [r3]
 310              	.LVL45:
 311              	.LBB10:
  80:main.c        ****         bk[i]=(-sin(fc*i)/(ORDEN*PI));
 312              		.loc 1 80 0
 313 00a0 0126     		movs	r6, #1
 314 00a2 17E0     		b	.L20
 315              	.LVL46:
 316              	.L21:
  81:main.c        ****             }
 317              		.loc 1 81 0 discriminator 3
 318 00a4 3046     		mov	r0, r6
 319 00a6 FFF7FEFF 		bl	__aeabi_i2d
 320              	.LVL47:
 321 00aa 2246     		mov	r2, r4
 322 00ac 2B46     		mov	r3, r5
 323 00ae FFF7FEFF 		bl	__aeabi_dmul
 324              	.LVL48:
 325 00b2 FFF7FEFF 		bl	sin
 326              	.LVL49:
 327 00b6 3CA3     		adr	r3, .L25+16
 328 00b8 D3E90023 		ldrd	r2, [r3]
 329 00bc 01F10049 		add	r9, r1, #-2147483648
 330 00c0 4946     		mov	r1, r9
 331 00c2 FFF7FEFF 		bl	__aeabi_ddiv
 332              	.LVL50:
 333 00c6 3D4B     		ldr	r3, .L25+36
 334 00c8 03EBC603 		add	r3, r3, r6, lsl #3
 335 00cc C3E90001 		strd	r0, [r3]
  80:main.c        ****         bk[i]=(-sin(fc*i)/(ORDEN*PI));
 336              		.loc 1 80 0 discriminator 3
 337 00d0 0136     		adds	r6, r6, #1
 338              	.LVL51:
 339 00d2 F6B2     		uxtb	r6, r6
 340              	.LVL52:
 341              	.L20:
  80:main.c        ****         bk[i]=(-sin(fc*i)/(ORDEN*PI));
 342              		.loc 1 80 0 is_stmt 0 discriminator 1
 343 00d4 092E     		cmp	r6, #9
 344 00d6 E5D9     		bls	.L21
 345 00d8 5BE0     		b	.L13
 346              	.LVL53:
 347              	.L17:
 348              	.LBE10:
  86:main.c        ****           bk[0]=1-2*(fc-fd);
 349              		.loc 1 86 0 is_stmt 1
 350 00da 354B     		ldr	r3, .L25+24
ARM GAS  C:\Users\GITUD\AppData\Local\Temp\ccH4oFP5.s 			page 12


 351 00dc 1B88     		ldrh	r3, [r3]
 352 00de 9BB2     		uxth	r3, r3
 353 00e0 0A3B     		subs	r3, r3, #10
 354 00e2 3848     		ldr	r0, .L25+44
 355 00e4 80FB0320 		smull	r2, r0, r0, r3
 356 00e8 DB17     		asrs	r3, r3, #31
 357 00ea C3EB6030 		rsb	r0, r3, r0, asr #13
 358 00ee FFF7FEFF 		bl	__aeabi_i2d
 359              	.LVL54:
 360 00f2 29A3     		adr	r3, .L25
 361 00f4 D3E90023 		ldrd	r2, [r3]
 362 00f8 FFF7FEFF 		bl	__aeabi_dsub
 363              	.LVL55:
 364 00fc 28A3     		adr	r3, .L25+8
 365 00fe D3E90023 		ldrd	r2, [r3]
 366 0102 FFF7FEFF 		bl	__aeabi_dmul
 367              	.LVL56:
 368 0106 0246     		mov	r2, r0
 369 0108 0B46     		mov	r3, r1
 370 010a CDE90023 		strd	r2, [sp]
 371              	.LVL57:
  87:main.c        ****          for (uint8 i=1;i<ORDEN;i++){
 372              		.loc 1 87 0
 373 010e 2046     		mov	r0, r4
 374 0110 2946     		mov	r1, r5
 375 0112 FFF7FEFF 		bl	__aeabi_dsub
 376              	.LVL58:
 377 0116 0246     		mov	r2, r0
 378 0118 0B46     		mov	r3, r1
 379 011a FFF7FEFF 		bl	__aeabi_dadd
 380              	.LVL59:
 381 011e 0246     		mov	r2, r0
 382 0120 0B46     		mov	r3, r1
 383 0122 0020     		movs	r0, #0
 384 0124 2649     		ldr	r1, .L25+40
 385 0126 FFF7FEFF 		bl	__aeabi_dsub
 386              	.LVL60:
 387 012a 244B     		ldr	r3, .L25+36
 388 012c C3E90001 		strd	r0, [r3]
 389              	.LVL61:
 390              	.LBB11:
  88:main.c        ****             bk[i]=((sin(fc*i)-sin(fd*i))/(ORDEN*PI));
 391              		.loc 1 88 0
 392 0130 4FF0010A 		mov	r10, #1
 393 0134 2AE0     		b	.L22
 394              	.LVL62:
 395              	.L23:
  89:main.c        ****             }
 396              		.loc 1 89 0 discriminator 3
 397 0136 5046     		mov	r0, r10
 398 0138 FFF7FEFF 		bl	__aeabi_i2d
 399              	.LVL63:
 400 013c 0646     		mov	r6, r0
 401 013e 0F46     		mov	r7, r1
 402 0140 0246     		mov	r2, r0
 403 0142 0B46     		mov	r3, r1
 404 0144 2046     		mov	r0, r4
ARM GAS  C:\Users\GITUD\AppData\Local\Temp\ccH4oFP5.s 			page 13


 405 0146 2946     		mov	r1, r5
 406 0148 FFF7FEFF 		bl	__aeabi_dmul
 407              	.LVL64:
 408 014c FFF7FEFF 		bl	sin
 409              	.LVL65:
 410 0150 8046     		mov	r8, r0
 411 0152 8946     		mov	r9, r1
 412 0154 3246     		mov	r2, r6
 413 0156 3B46     		mov	r3, r7
 414 0158 DDE90001 		ldrd	r0, [sp]
 415 015c FFF7FEFF 		bl	__aeabi_dmul
 416              	.LVL66:
 417 0160 FFF7FEFF 		bl	sin
 418              	.LVL67:
 419 0164 0246     		mov	r2, r0
 420 0166 0B46     		mov	r3, r1
 421 0168 4046     		mov	r0, r8
 422 016a 4946     		mov	r1, r9
 423 016c FFF7FEFF 		bl	__aeabi_dsub
 424              	.LVL68:
 425 0170 0DA3     		adr	r3, .L25+16
 426 0172 D3E90023 		ldrd	r2, [r3]
 427 0176 FFF7FEFF 		bl	__aeabi_ddiv
 428              	.LVL69:
 429 017a 104B     		ldr	r3, .L25+36
 430 017c 03EBCA03 		add	r3, r3, r10, lsl #3
 431 0180 C3E90001 		strd	r0, [r3]
  88:main.c        ****             bk[i]=((sin(fc*i)-sin(fd*i))/(ORDEN*PI));
 432              		.loc 1 88 0 discriminator 3
 433 0184 0AF1010A 		add	r10, r10, #1
 434              	.LVL70:
 435 0188 5FFA8AFA 		uxtb	r10, r10
 436              	.LVL71:
 437              	.L22:
  88:main.c        ****             bk[i]=((sin(fc*i)-sin(fd*i))/(ORDEN*PI));
 438              		.loc 1 88 0 is_stmt 0 discriminator 1
 439 018c BAF1090F 		cmp	r10, #9
 440 0190 D1D9     		bls	.L23
 441              	.LVL72:
 442              	.L13:
 443              	.LBE11:
  98:main.c        **** 
 444              		.loc 1 98 0 is_stmt 1
 445 0192 02B0     		add	sp, sp, #8
 446              		.cfi_def_cfa_offset 32
 447              		@ sp needed
 448 0194 BDE8F087 		pop	{r4, r5, r6, r7, r8, r9, r10, pc}
 449              	.LVL73:
 450              	.L26:
 451              		.align	3
 452              	.L25:
 453 0198 1F85EB51 		.word	1374389535
 454 019c B81EC53F 		.word	1069883064
 455 01a0 F1D4C853 		.word	1405670641
 456 01a4 FB211940 		.word	1075388923
 457 01a8 2D0ABB28 		.word	683346477
 458 01ac 7A6A3F40 		.word	1077897850
ARM GAS  C:\Users\GITUD\AppData\Local\Temp\ccH4oFP5.s 			page 14


 459 01b0 00000000 		.word	.LANCHOR1
 460 01b4 5917B7D1 		.word	-776530087
 461 01b8 00000000 		.word	.LANCHOR0
 462 01bc 00000000 		.word	bk
 463 01c0 0000F03F 		.word	1072693248
 464 01c4 AD8BDB68 		.word	1759218605
 465              		.cfi_endproc
 466              	.LFE63:
 467              		.size	coeficientes, .-coeficientes
 468              		.section	.text.visual,"ax",%progbits
 469              		.align	2
 470              		.global	visual
 471              		.thumb
 472              		.thumb_func
 473              		.type	visual, %function
 474              	visual:
 475              	.LFB64:
 100:main.c        ****     if(numero==10){  
 476              		.loc 1 100 0
 477              		.cfi_startproc
 478              		@ args = 0, pretend = 0, frame = 0
 479              		@ frame_needed = 0, uses_anonymous_args = 0
 480              	.LVL74:
 481 0000 08B5     		push	{r3, lr}
 482              		.cfi_def_cfa_offset 8
 483              		.cfi_offset 3, -8
 484              		.cfi_offset 14, -4
 101:main.c        ****         //Enter
 485              		.loc 1 101 0
 486 0002 0A28     		cmp	r0, #10
 487 0004 14D1     		bne	.L28
 103:main.c        ****         frecuencia=frecuenciaux;
 488              		.loc 1 103 0
 489 0006 304B     		ldr	r3, .L34
 490 0008 93F80034 		ldrb	r3, [r3, #1024]	@ zero_extendqisi2
 491 000c 13F0FF0F 		tst	r3, #255
 492 0010 3CD1     		bne	.L29
 104:main.c        ****         frecuenciaux=0;
 493              		.loc 1 104 0
 494 0012 2D4B     		ldr	r3, .L34
 495 0014 B3F80224 		ldrh	r2, [r3, #1026]
 496 0018 92B2     		uxth	r2, r2
 497 001a 2C49     		ldr	r1, .L34+4
 498 001c 0A80     		strh	r2, [r1]	@ movhi
 105:main.c        ****         de=1;
 499              		.loc 1 105 0
 500 001e 0022     		movs	r2, #0
 501 0020 A3F80224 		strh	r2, [r3, #1026]	@ movhi
 106:main.c        ****         coeficientes();    
 502              		.loc 1 106 0
 503 0024 0122     		movs	r2, #1
 504 0026 83F80024 		strb	r2, [r3, #1024]
 107:main.c        ****         }
 505              		.loc 1 107 0
 506 002a FFF7FEFF 		bl	coeficientes
 507              	.LVL75:
 508 002e 2DE0     		b	.L29
ARM GAS  C:\Users\GITUD\AppData\Local\Temp\ccH4oFP5.s 			page 15


 509              	.LVL76:
 510              	.L28:
 110:main.c        ****             if(frecuenciaux==0){
 511              		.loc 1 110 0
 512 0030 254B     		ldr	r3, .L34
 513 0032 0022     		movs	r2, #0
 514 0034 83F80024 		strb	r2, [r3, #1024]
 111:main.c        ****                 frecuenciaux=numero;
 515              		.loc 1 111 0
 516 0038 B3F80234 		ldrh	r3, [r3, #1026]
 517 003c 9BB2     		uxth	r3, r3
 518 003e 23B9     		cbnz	r3, .L30
 112:main.c        ****             }else{
 519              		.loc 1 112 0
 520 0040 80B2     		uxth	r0, r0
 521              	.LVL77:
 522 0042 214B     		ldr	r3, .L34
 523 0044 A3F80204 		strh	r0, [r3, #1026]	@ movhi
 524 0048 20E0     		b	.L29
 525              	.LVL78:
 526              	.L30:
 114:main.c        ****                 if(frecuenciaux>100){
 527              		.loc 1 114 0
 528 004a 1F4A     		ldr	r2, .L34
 529 004c B2F80234 		ldrh	r3, [r2, #1026]
 530 0050 9BB2     		uxth	r3, r3
 531 0052 03EB8303 		add	r3, r3, r3, lsl #2
 532 0056 5900     		lsls	r1, r3, #1
 533 0058 0844     		add	r0, r0, r1
 534              	.LVL79:
 535 005a 80B2     		uxth	r0, r0
 536 005c A2F80204 		strh	r0, [r2, #1026]	@ movhi
 115:main.c        ****                     //Timer_Stop();
 537              		.loc 1 115 0
 538 0060 B2F80234 		ldrh	r3, [r2, #1026]
 539 0064 9BB2     		uxth	r3, r3
 540 0066 642B     		cmp	r3, #100
 541 0068 10D9     		bls	.L29
 117:main.c        ****                     frecuencia=1000;
 542              		.loc 1 117 0
 543 006a B2F80234 		ldrh	r3, [r2, #1026]
 544 006e 9BB2     		uxth	r3, r3
 545 0070 B3F57A7F 		cmp	r3, #1000
 546 0074 0AD9     		bls	.L29
 118:main.c        ****                     frecuenciaux=0;
 547              		.loc 1 118 0
 548 0076 4FF47A72 		mov	r2, #1000
 549 007a 144B     		ldr	r3, .L34+4
 550 007c 1A80     		strh	r2, [r3]	@ movhi
 119:main.c        ****                     de=1;
 551              		.loc 1 119 0
 552 007e 124B     		ldr	r3, .L34
 553 0080 0022     		movs	r2, #0
 554 0082 A3F80224 		strh	r2, [r3, #1026]	@ movhi
 120:main.c        ****                 }
 555              		.loc 1 120 0
 556 0086 0122     		movs	r2, #1
ARM GAS  C:\Users\GITUD\AppData\Local\Temp\ccH4oFP5.s 			page 16


 557 0088 83F80024 		strb	r2, [r3, #1024]
 558              	.L29:
 125:main.c        ****     LCD_PrintString("    ");
 559              		.loc 1 125 0
 560 008c 0A21     		movs	r1, #10
 561 008e 0120     		movs	r0, #1
 562 0090 FFF7FEFF 		bl	LCD_Position
 563              	.LVL80:
 126:main.c        ****     LCD_Position(1,10);
 564              		.loc 1 126 0
 565 0094 0E48     		ldr	r0, .L34+8
 566 0096 FFF7FEFF 		bl	LCD_PrintString
 567              	.LVL81:
 127:main.c        ****     if(de==0){
 568              		.loc 1 127 0
 569 009a 0A21     		movs	r1, #10
 570 009c 0120     		movs	r0, #1
 571 009e FFF7FEFF 		bl	LCD_Position
 572              	.LVL82:
 128:main.c        ****         LCD_PrintNumber(frecuenciaux);
 573              		.loc 1 128 0
 574 00a2 094B     		ldr	r3, .L34
 575 00a4 93F80034 		ldrb	r3, [r3, #1024]	@ zero_extendqisi2
 576 00a8 13F0FF0F 		tst	r3, #255
 577 00ac 06D1     		bne	.L31
 129:main.c        ****     }else{
 578              		.loc 1 129 0
 579 00ae 064B     		ldr	r3, .L34
 580 00b0 B3F80204 		ldrh	r0, [r3, #1026]
 581 00b4 80B2     		uxth	r0, r0
 582 00b6 FFF7FEFF 		bl	LCD_PrintU32Number
 583              	.LVL83:
 584 00ba 08BD     		pop	{r3, pc}
 585              	.L31:
 131:main.c        ****     }
 586              		.loc 1 131 0
 587 00bc 034B     		ldr	r3, .L34+4
 588 00be 1888     		ldrh	r0, [r3]
 589 00c0 80B2     		uxth	r0, r0
 590 00c2 FFF7FEFF 		bl	LCD_PrintU32Number
 591              	.LVL84:
 592 00c6 08BD     		pop	{r3, pc}
 593              	.L35:
 594              		.align	2
 595              	.L34:
 596 00c8 00000000 		.word	.LANCHOR0
 597 00cc 00000000 		.word	.LANCHOR1
 598 00d0 00000000 		.word	.LC0
 599              		.cfi_endproc
 600              	.LFE64:
 601              		.size	visual, .-visual
 602              		.section	.text.Int_SW,"ax",%progbits
 603              		.align	2
 604              		.global	Int_SW
 605              		.thumb
 606              		.thumb_func
 607              		.type	Int_SW, %function
ARM GAS  C:\Users\GITUD\AppData\Local\Temp\ccH4oFP5.s 			page 17


 608              	Int_SW:
 609              	.LFB65:
 135:main.c        ****     //ADC_StopConvert();
 610              		.loc 1 135 0
 611              		.cfi_startproc
 612              		@ args = 0, pretend = 0, frame = 0
 613              		@ frame_needed = 0, uses_anonymous_args = 0
 614 0000 10B5     		push	{r4, lr}
 615              		.cfi_def_cfa_offset 8
 616              		.cfi_offset 4, -8
 617              		.cfi_offset 14, -4
 137:main.c        ****     Control_Write(0);
 618              		.loc 1 137 0
 619 0002 FFF7FEFF 		bl	SW_Read
 620              	.LVL85:
 621 0006 0446     		mov	r4, r0
 622              	.LVL86:
 138:main.c        ****     switch(SW_Read()) {
 623              		.loc 1 138 0
 624 0008 0020     		movs	r0, #0
 625 000a FFF7FEFF 		bl	Control_Write
 626              	.LVL87:
 139:main.c        ****             case 0b00001110:
 627              		.loc 1 139 0
 628 000e FFF7FEFF 		bl	SW_Read
 629              	.LVL88:
 630 0012 0738     		subs	r0, r0, #7
 631 0014 0728     		cmp	r0, #7
 632 0016 00F28780 		bhi	.L60
 633 001a DFE800F0 		tbb	[pc, r0]
 634              	.L39:
 635 001e 71       		.byte	(.L38-.L39)/2
 636 001f 85       		.byte	(.L60-.L39)/2
 637 0020 85       		.byte	(.L60-.L39)/2
 638 0021 85       		.byte	(.L60-.L39)/2
 639 0022 4E       		.byte	(.L40-.L39)/2
 640 0023 85       		.byte	(.L60-.L39)/2
 641 0024 29       		.byte	(.L41-.L39)/2
 642 0025 04       		.byte	(.L42-.L39)/2
 643              		.p2align 1
 644              	.L42:
 141:main.c        ****                     case 0xE:
 645              		.loc 1 141 0
 646 0026 FFF7FEFF 		bl	P0_Read
 647              	.LVL89:
 648 002a 0738     		subs	r0, r0, #7
 649 002c 0728     		cmp	r0, #7
 650 002e 7BD8     		bhi	.L60
 651 0030 DFE800F0 		tbb	[pc, r0]
 652              	.L44:
 653 0034 10       		.byte	(.L43-.L44)/2
 654 0035 7A       		.byte	(.L60-.L44)/2
 655 0036 7A       		.byte	(.L60-.L44)/2
 656 0037 7A       		.byte	(.L60-.L44)/2
 657 0038 0C       		.byte	(.L45-.L44)/2
 658 0039 7A       		.byte	(.L60-.L44)/2
 659 003a 08       		.byte	(.L46-.L44)/2
ARM GAS  C:\Users\GITUD\AppData\Local\Temp\ccH4oFP5.s 			page 18


 660 003b 04       		.byte	(.L47-.L44)/2
 661              		.p2align 1
 662              	.L47:
 143:main.c        ****                     break;
 663              		.loc 1 143 0
 664 003c 0120     		movs	r0, #1
 665 003e FFF7FEFF 		bl	visual
 666              	.LVL90:
 144:main.c        ****                     case 0xD:
 667              		.loc 1 144 0
 668 0042 71E0     		b	.L60
 669              	.L46:
 146:main.c        ****                     break;
 670              		.loc 1 146 0
 671 0044 0220     		movs	r0, #2
 672 0046 FFF7FEFF 		bl	visual
 673              	.LVL91:
 147:main.c        ****                      case 0xB:
 674              		.loc 1 147 0
 675 004a 6DE0     		b	.L60
 676              	.L45:
 149:main.c        ****                     break;
 677              		.loc 1 149 0
 678 004c 0320     		movs	r0, #3
 679 004e FFF7FEFF 		bl	visual
 680              	.LVL92:
 150:main.c        ****                     case 0x7:
 681              		.loc 1 150 0
 682 0052 69E0     		b	.L60
 683              	.L43:
 152:main.c        ****                     LCD_PrintString("PasaBajos");
 684              		.loc 1 152 0
 685 0054 0721     		movs	r1, #7
 686 0056 0020     		movs	r0, #0
 687 0058 FFF7FEFF 		bl	LCD_Position
 688              	.LVL93:
 153:main.c        ****                     clase=0;
 689              		.loc 1 153 0
 690 005c 3748     		ldr	r0, .L62
 691 005e FFF7FEFF 		bl	LCD_PrintString
 692              	.LVL94:
 154:main.c        ****                     coeficientes();
 693              		.loc 1 154 0
 694 0062 0022     		movs	r2, #0
 695 0064 364B     		ldr	r3, .L62+4
 696 0066 83F8FF23 		strb	r2, [r3, #1023]
 155:main.c        ****                     break;
 697              		.loc 1 155 0
 698 006a FFF7FEFF 		bl	coeficientes
 699              	.LVL95:
 156:main.c        ****                     default:
 700              		.loc 1 156 0
 701 006e 5BE0     		b	.L60
 702              	.L41:
 162:main.c        ****                     case 0xE:
 703              		.loc 1 162 0
 704 0070 FFF7FEFF 		bl	P0_Read
ARM GAS  C:\Users\GITUD\AppData\Local\Temp\ccH4oFP5.s 			page 19


 705              	.LVL96:
 706 0074 0738     		subs	r0, r0, #7
 707 0076 0728     		cmp	r0, #7
 708 0078 56D8     		bhi	.L60
 709 007a DFE800F0 		tbb	[pc, r0]
 710              	.L49:
 711 007e 10       		.byte	(.L48-.L49)/2
 712 007f 55       		.byte	(.L60-.L49)/2
 713 0080 55       		.byte	(.L60-.L49)/2
 714 0081 55       		.byte	(.L60-.L49)/2
 715 0082 0C       		.byte	(.L50-.L49)/2
 716 0083 55       		.byte	(.L60-.L49)/2
 717 0084 08       		.byte	(.L51-.L49)/2
 718 0085 04       		.byte	(.L52-.L49)/2
 719              		.p2align 1
 720              	.L52:
 164:main.c        ****                     break;
 721              		.loc 1 164 0
 722 0086 0420     		movs	r0, #4
 723 0088 FFF7FEFF 		bl	visual
 724              	.LVL97:
 165:main.c        ****                     case 0xD:
 725              		.loc 1 165 0
 726 008c 4CE0     		b	.L60
 727              	.L51:
 167:main.c        ****                     break;
 728              		.loc 1 167 0
 729 008e 0520     		movs	r0, #5
 730 0090 FFF7FEFF 		bl	visual
 731              	.LVL98:
 168:main.c        ****                     case 0xB:
 732              		.loc 1 168 0
 733 0094 48E0     		b	.L60
 734              	.L50:
 170:main.c        ****                     break;
 735              		.loc 1 170 0
 736 0096 0620     		movs	r0, #6
 737 0098 FFF7FEFF 		bl	visual
 738              	.LVL99:
 171:main.c        ****                     case 0x7:
 739              		.loc 1 171 0
 740 009c 44E0     		b	.L60
 741              	.L48:
 173:main.c        ****                     LCD_PrintString("PasaAltos");
 742              		.loc 1 173 0
 743 009e 0721     		movs	r1, #7
 744 00a0 0020     		movs	r0, #0
 745 00a2 FFF7FEFF 		bl	LCD_Position
 746              	.LVL100:
 174:main.c        ****                     clase=1;
 747              		.loc 1 174 0
 748 00a6 2748     		ldr	r0, .L62+8
 749 00a8 FFF7FEFF 		bl	LCD_PrintString
 750              	.LVL101:
 175:main.c        ****                     coeficientes();
 751              		.loc 1 175 0
 752 00ac 0122     		movs	r2, #1
ARM GAS  C:\Users\GITUD\AppData\Local\Temp\ccH4oFP5.s 			page 20


 753 00ae 244B     		ldr	r3, .L62+4
 754 00b0 83F8FF23 		strb	r2, [r3, #1023]
 176:main.c        ****                     break;
 755              		.loc 1 176 0
 756 00b4 FFF7FEFF 		bl	coeficientes
 757              	.LVL102:
 177:main.c        ****                     default:
 758              		.loc 1 177 0
 759 00b8 36E0     		b	.L60
 760              	.L40:
 183:main.c        ****                     case 0xE:
 761              		.loc 1 183 0
 762 00ba FFF7FEFF 		bl	P0_Read
 763              	.LVL103:
 764 00be 0738     		subs	r0, r0, #7
 765 00c0 0728     		cmp	r0, #7
 766 00c2 31D8     		bhi	.L60
 767 00c4 DFE800F0 		tbb	[pc, r0]
 768              	.L54:
 769 00c8 10       		.byte	(.L53-.L54)/2
 770 00c9 30       		.byte	(.L60-.L54)/2
 771 00ca 30       		.byte	(.L60-.L54)/2
 772 00cb 30       		.byte	(.L60-.L54)/2
 773 00cc 0C       		.byte	(.L55-.L54)/2
 774 00cd 30       		.byte	(.L60-.L54)/2
 775 00ce 08       		.byte	(.L56-.L54)/2
 776 00cf 04       		.byte	(.L57-.L54)/2
 777              		.p2align 1
 778              	.L57:
 185:main.c        ****                     break;
 779              		.loc 1 185 0
 780 00d0 0720     		movs	r0, #7
 781 00d2 FFF7FEFF 		bl	visual
 782              	.LVL104:
 186:main.c        ****                     case 0xD:
 783              		.loc 1 186 0
 784 00d6 27E0     		b	.L60
 785              	.L56:
 188:main.c        ****                     break;
 786              		.loc 1 188 0
 787 00d8 0820     		movs	r0, #8
 788 00da FFF7FEFF 		bl	visual
 789              	.LVL105:
 189:main.c        ****                      case 0xB:
 790              		.loc 1 189 0
 791 00de 23E0     		b	.L60
 792              	.L55:
 191:main.c        ****                     break;
 793              		.loc 1 191 0
 794 00e0 0920     		movs	r0, #9
 795 00e2 FFF7FEFF 		bl	visual
 796              	.LVL106:
 192:main.c        ****                     case 0x7:
 797              		.loc 1 192 0
 798 00e6 1FE0     		b	.L60
 799              	.L53:
 194:main.c        ****                     LCD_PrintString("PasaBanda");
ARM GAS  C:\Users\GITUD\AppData\Local\Temp\ccH4oFP5.s 			page 21


 800              		.loc 1 194 0
 801 00e8 0721     		movs	r1, #7
 802 00ea 0020     		movs	r0, #0
 803 00ec FFF7FEFF 		bl	LCD_Position
 804              	.LVL107:
 195:main.c        ****                     clase=2;
 805              		.loc 1 195 0
 806 00f0 1548     		ldr	r0, .L62+12
 807 00f2 FFF7FEFF 		bl	LCD_PrintString
 808              	.LVL108:
 196:main.c        ****                     break;
 809              		.loc 1 196 0
 810 00f6 0222     		movs	r2, #2
 811 00f8 114B     		ldr	r3, .L62+4
 812 00fa 83F8FF23 		strb	r2, [r3, #1023]
 197:main.c        ****                     default:
 813              		.loc 1 197 0
 814 00fe 13E0     		b	.L60
 815              	.L38:
 203:main.c        ****                     //case 0xE:
 816              		.loc 1 203 0
 817 0100 FFF7FEFF 		bl	P0_Read
 818              	.LVL109:
 819 0104 0728     		cmp	r0, #7
 820 0106 0CD0     		beq	.L58
 821 0108 0D28     		cmp	r0, #13
 822 010a 0DD1     		bne	.L60
 210:main.c        ****                     break;
 823              		.loc 1 210 0
 824 010c 0C4B     		ldr	r3, .L62+4
 825 010e 93F80424 		ldrb	r2, [r3, #1028]	@ zero_extendqisi2
 826 0112 12F0FF0F 		tst	r2, #255
 827 0116 0CBF     		ite	eq
 828 0118 0122     		moveq	r2, #1
 829 011a 0022     		movne	r2, #0
 830 011c 83F80424 		strb	r2, [r3, #1028]
 211:main.c        ****                     visual(0);//Enter D
 831              		.loc 1 211 0
 832 0120 02E0     		b	.L60
 833              	.L58:
 214:main.c        ****                     break;
 834              		.loc 1 214 0
 835 0122 0A20     		movs	r0, #10
 836 0124 FFF7FEFF 		bl	visual
 837              	.LVL110:
 838              	.L60:
 223:main.c        ****     //ADC_StartConvert();
 839              		.loc 1 223 0 discriminator 1
 840 0128 FFF7FEFF 		bl	SW_Read
 841              	.LVL111:
 842 012c 8442     		cmp	r4, r0
 843 012e FBD0     		beq	.L60
 225:main.c        ****     SW_ClearInterrupt();
 844              		.loc 1 225 0
 845 0130 0120     		movs	r0, #1
 846 0132 FFF7FEFF 		bl	Control_Write
 847              	.LVL112:
ARM GAS  C:\Users\GITUD\AppData\Local\Temp\ccH4oFP5.s 			page 22


 226:main.c        ****     
 848              		.loc 1 226 0
 849 0136 FFF7FEFF 		bl	SW_ClearInterrupt
 850              	.LVL113:
 851 013a 10BD     		pop	{r4, pc}
 852              	.LVL114:
 853              	.L63:
 854              		.align	2
 855              	.L62:
 856 013c 08000000 		.word	.LC1
 857 0140 00000000 		.word	.LANCHOR0
 858 0144 14000000 		.word	.LC2
 859 0148 20000000 		.word	.LC3
 860              		.cfi_endproc
 861              	.LFE65:
 862              		.size	Int_SW, .-Int_SW
 863              		.section	.text.main,"ax",%progbits
 864              		.align	2
 865              		.global	main
 866              		.thumb
 867              		.thumb_func
 868              		.type	main, %function
 869              	main:
 870              	.LFB67:
 255:main.c        **** 
 256:main.c        **** 
 257:main.c        **** 
 258:main.c        **** int main(void)
 259:main.c        **** {
 871              		.loc 1 259 0
 872              		.cfi_startproc
 873              		@ Volatile: function does not return.
 874              		@ args = 0, pretend = 0, frame = 0
 875              		@ frame_needed = 0, uses_anonymous_args = 0
 876 0000 08B5     		push	{r3, lr}
 877              		.cfi_def_cfa_offset 8
 878              		.cfi_offset 3, -8
 879              		.cfi_offset 14, -4
 260:main.c        ****     CyGlobalIntEnable; /* Enable global interrupts. */
 880              		.loc 1 260 0
 881              		.syntax unified
 882              	@ 260 "main.c" 1
 883 0002 62B6     		CPSIE   i
 884              	@ 0 "" 2
 261:main.c        ****     
 262:main.c        ****     /* DMA Configuration for DMA_OUT */
 263:main.c        ****     DMA_OUT_Chan = DMA_OUT_DmaInitialize(DMA_OUT_BYTES_PER_BURST, DMA_OUT_REQUEST_PER_BURST, 
 885              		.loc 1 263 0
 886              		.thumb
 887              		.syntax unified
 888 0004 4FF48043 		mov	r3, #16384
 889 0008 41F6FF72 		movw	r2, #8191
 890 000c 0121     		movs	r1, #1
 891 000e 0846     		mov	r0, r1
 892 0010 FFF7FEFF 		bl	DMA_OUT_DmaInitialize
 893              	.LVL115:
 894 0014 304C     		ldr	r4, .L67
ARM GAS  C:\Users\GITUD\AppData\Local\Temp\ccH4oFP5.s 			page 23


 895 0016 2070     		strb	r0, [r4]
 264:main.c        ****         HI16(DMA_OUT_SRC_BASE), HI16(DMA_OUT_DST_BASE));
 265:main.c        ****     DMA_OUT_TD[0] = CyDmaTdAllocate();
 896              		.loc 1 265 0
 897 0018 FFF7FEFF 		bl	CyDmaTdAllocate
 898              	.LVL116:
 899 001c 0246     		mov	r2, r0
 900 001e 2F4D     		ldr	r5, .L67+4
 901 0020 2870     		strb	r0, [r5]
 266:main.c        ****     CyDmaTdSetConfiguration(DMA_OUT_TD[0], BUFFER, DMA_OUT_TD[0], CY_DMA_TD_INC_SRC_ADR);
 902              		.loc 1 266 0
 903 0022 0123     		movs	r3, #1
 904 0024 40F2FF11 		movw	r1, #511
 905 0028 FFF7FEFF 		bl	CyDmaTdSetConfiguration
 906              	.LVL117:
 267:main.c        ****     CyDmaTdSetAddress(DMA_OUT_TD[0], LO16((uint32)Salida), LO16((uint32)DAC_Data_PTR));
 907              		.loc 1 267 0
 908 002c 2C4E     		ldr	r6, .L67+8
 909 002e 06F50071 		add	r1, r6, #512
 910 0032 45F68332 		movw	r2, #23427
 911 0036 89B2     		uxth	r1, r1
 912 0038 2878     		ldrb	r0, [r5]	@ zero_extendqisi2
 913 003a FFF7FEFF 		bl	CyDmaTdSetAddress
 914              	.LVL118:
 268:main.c        ****     CyDmaChSetInitialTd(DMA_OUT_Chan, DMA_OUT_TD[0]);
 915              		.loc 1 268 0
 916 003e 2978     		ldrb	r1, [r5]	@ zero_extendqisi2
 917 0040 2078     		ldrb	r0, [r4]	@ zero_extendqisi2
 918 0042 FFF7FEFF 		bl	CyDmaChSetInitialTd
 919              	.LVL119:
 269:main.c        ****     CyDmaChEnable(DMA_OUT_Chan, 1);
 920              		.loc 1 269 0
 921 0046 0121     		movs	r1, #1
 922 0048 2078     		ldrb	r0, [r4]	@ zero_extendqisi2
 923 004a FFF7FEFF 		bl	CyDmaChEnable
 924              	.LVL120:
 270:main.c        ****     
 271:main.c        **** 
 272:main.c        ****     /* DMA Configuration for DMA_IN */
 273:main.c        ****     DMA_IN_Chan = DMA_IN_DmaInitialize(DMA_IN_BYTES_PER_BURST, DMA_IN_REQUEST_PER_BURST, 
 925              		.loc 1 273 0
 926 004e 41F6FF73 		movw	r3, #8191
 927 0052 4FF48042 		mov	r2, #16384
 928 0056 0121     		movs	r1, #1
 929 0058 0846     		mov	r0, r1
 930 005a FFF7FEFF 		bl	DMA_IN_DmaInitialize
 931              	.LVL121:
 932 005e 214C     		ldr	r4, .L67+12
 933 0060 2070     		strb	r0, [r4]
 274:main.c        ****         HI16(DMA_IN_SRC_BASE), HI16(DMA_IN_DST_BASE));
 275:main.c        ****     DMA_IN_TD[0] = CyDmaTdAllocate();
 934              		.loc 1 275 0
 935 0062 FFF7FEFF 		bl	CyDmaTdAllocate
 936              	.LVL122:
 937 0066 0246     		mov	r2, r0
 938 0068 1F4D     		ldr	r5, .L67+16
 939 006a 2870     		strb	r0, [r5]
ARM GAS  C:\Users\GITUD\AppData\Local\Temp\ccH4oFP5.s 			page 24


 276:main.c        ****     CyDmaTdSetConfiguration(DMA_IN_TD[0], BUFFER, DMA_IN_TD[0], DMA_IN__TD_TERMOUT_EN | CY_DMA_TD_I
 940              		.loc 1 276 0
 941 006c 0623     		movs	r3, #6
 942 006e 40F2FF11 		movw	r1, #511
 943 0072 FFF7FEFF 		bl	CyDmaTdSetConfiguration
 944              	.LVL123:
 277:main.c        ****     CyDmaTdSetAddress(DMA_IN_TD[0], LO16((uint32)ADC_DEC_SAMP_PTR), LO16((uint32)Muestra));
 945              		.loc 1 277 0
 946 0076 B2B2     		uxth	r2, r6
 947 0078 44F61061 		movw	r1, #19984
 948 007c 2878     		ldrb	r0, [r5]	@ zero_extendqisi2
 949 007e FFF7FEFF 		bl	CyDmaTdSetAddress
 950              	.LVL124:
 278:main.c        ****     CyDmaChSetInitialTd(DMA_IN_Chan, DMA_IN_TD[0]);
 951              		.loc 1 278 0
 952 0082 2978     		ldrb	r1, [r5]	@ zero_extendqisi2
 953 0084 2078     		ldrb	r0, [r4]	@ zero_extendqisi2
 954 0086 FFF7FEFF 		bl	CyDmaChSetInitialTd
 955              	.LVL125:
 279:main.c        ****     CyDmaChEnable(DMA_IN_Chan, 1);
 956              		.loc 1 279 0
 957 008a 0121     		movs	r1, #1
 958 008c 2078     		ldrb	r0, [r4]	@ zero_extendqisi2
 959 008e FFF7FEFF 		bl	CyDmaChEnable
 960              	.LVL126:
 280:main.c        ****     
 281:main.c        ****     ISR_SW_StartEx(Int_SW); //indicar cual es la rutina/vector de interrupcion
 961              		.loc 1 281 0
 962 0092 1648     		ldr	r0, .L67+20
 963 0094 FFF7FEFF 		bl	ISR_SW_StartEx
 964              	.LVL127:
 282:main.c        ****     ISR_Data_StartEx(Int_dato);
 965              		.loc 1 282 0
 966 0098 1548     		ldr	r0, .L67+24
 967 009a FFF7FEFF 		bl	ISR_Data_StartEx
 968              	.LVL128:
 283:main.c        ****     LCD_Start();
 969              		.loc 1 283 0
 970 009e FFF7FEFF 		bl	LCD_Start
 971              	.LVL129:
 284:main.c        ****     Control_Write(1);
 972              		.loc 1 284 0
 973 00a2 0120     		movs	r0, #1
 974 00a4 FFF7FEFF 		bl	Control_Write
 975              	.LVL130:
 285:main.c        ****     ADC_Start();
 976              		.loc 1 285 0
 977 00a8 FFF7FEFF 		bl	ADC_Start
 978              	.LVL131:
 286:main.c        ****     ADC_StartConvert();
 979              		.loc 1 286 0
 980 00ac FFF7FEFF 		bl	ADC_StartConvert
 981              	.LVL132:
 287:main.c        ****     DAC_Start();    
 982              		.loc 1 287 0
 983 00b0 FFF7FEFF 		bl	DAC_Start
 984              	.LVL133:
ARM GAS  C:\Users\GITUD\AppData\Local\Temp\ccH4oFP5.s 			page 25


 288:main.c        ****     coeficientes();
 985              		.loc 1 288 0
 986 00b4 FFF7FEFF 		bl	coeficientes
 987              	.LVL134:
 289:main.c        ****     LCD_Position(0,0);
 988              		.loc 1 289 0
 989 00b8 0021     		movs	r1, #0
 990 00ba 0846     		mov	r0, r1
 991 00bc FFF7FEFF 		bl	LCD_Position
 992              	.LVL135:
 290:main.c        ****     LCD_PrintString("Filtro PasaBajos");
 993              		.loc 1 290 0
 994 00c0 0C48     		ldr	r0, .L67+28
 995 00c2 FFF7FEFF 		bl	LCD_PrintString
 996              	.LVL136:
 291:main.c        ****     LCD_Position(1,0);
 997              		.loc 1 291 0
 998 00c6 0021     		movs	r1, #0
 999 00c8 0120     		movs	r0, #1
 1000 00ca FFF7FEFF 		bl	LCD_Position
 1001              	.LVL137:
 292:main.c        ****     LCD_PrintString("F. Corte: 100");
 1002              		.loc 1 292 0
 1003 00ce 0A48     		ldr	r0, .L67+32
 1004 00d0 FFF7FEFF 		bl	LCD_PrintString
 1005              	.LVL138:
 1006              	.L65:
 1007 00d4 FEE7     		b	.L65
 1008              	.L68:
 1009 00d6 00BF     		.align	2
 1010              	.L67:
 1011 00d8 00000000 		.word	DMA_OUT_Chan
 1012 00dc 00000000 		.word	DMA_OUT_TD
 1013 00e0 00000000 		.word	.LANCHOR0
 1014 00e4 00000000 		.word	DMA_IN_Chan
 1015 00e8 00000000 		.word	DMA_IN_TD
 1016 00ec 00000000 		.word	Int_SW
 1017 00f0 00000000 		.word	Int_dato
 1018 00f4 2C000000 		.word	.LC4
 1019 00f8 40000000 		.word	.LC5
 1020              		.cfi_endproc
 1021              	.LFE67:
 1022              		.size	main, .-main
 1023              		.comm	bk,80,8
 1024              		.global	cont
 1025              		.global	Salida
 1026              		.global	Muestra
 1027              		.global	frecuencia
 1028              		.global	clase
 1029              		.global	de2
 1030              		.global	de
 1031              		.global	frecuenciaux
 1032              		.comm	DMA_IN_TD,1,4
 1033              		.comm	DMA_IN_Chan,1,1
 1034              		.comm	DMA_OUT_TD,1,4
 1035              		.comm	DMA_OUT_Chan,1,1
 1036              		.data
ARM GAS  C:\Users\GITUD\AppData\Local\Temp\ccH4oFP5.s 			page 26


 1037              		.align	1
 1038              		.set	.LANCHOR1,. + 0
 1039              		.type	frecuencia, %object
 1040              		.size	frecuencia, 2
 1041              	frecuencia:
 1042 0000 6400     		.short	100
 1043              		.section	.rodata.str1.4,"aMS",%progbits,1
 1044              		.align	2
 1045              	.LC0:
 1046 0000 20202020 		.ascii	"    \000"
 1046      00
 1047 0005 000000   		.space	3
 1048              	.LC1:
 1049 0008 50617361 		.ascii	"PasaBajos\000"
 1049      42616A6F 
 1049      7300
 1050 0012 0000     		.space	2
 1051              	.LC2:
 1052 0014 50617361 		.ascii	"PasaAltos\000"
 1052      416C746F 
 1052      7300
 1053 001e 0000     		.space	2
 1054              	.LC3:
 1055 0020 50617361 		.ascii	"PasaBanda\000"
 1055      42616E64 
 1055      6100
 1056 002a 0000     		.space	2
 1057              	.LC4:
 1058 002c 46696C74 		.ascii	"Filtro PasaBajos\000"
 1058      726F2050 
 1058      61736142 
 1058      616A6F73 
 1058      00
 1059 003d 000000   		.space	3
 1060              	.LC5:
 1061 0040 462E2043 		.ascii	"F. Corte: 100\000"
 1061      6F727465 
 1061      3A203130 
 1061      3000
 1062              		.bss
 1063              		.align	2
 1064              		.set	.LANCHOR0,. + 0
 1065              		.type	Muestra, %object
 1066              		.size	Muestra, 511
 1067              	Muestra:
 1068 0000 00000000 		.space	511
 1068      00000000 
 1068      00000000 
 1068      00000000 
 1068      00000000 
 1069 01ff 00       		.space	1
 1070              		.type	Salida, %object
 1071              		.size	Salida, 511
 1072              	Salida:
 1073 0200 00000000 		.space	511
 1073      00000000 
 1073      00000000 
ARM GAS  C:\Users\GITUD\AppData\Local\Temp\ccH4oFP5.s 			page 27


 1073      00000000 
 1073      00000000 
 1074              		.type	clase, %object
 1075              		.size	clase, 1
 1076              	clase:
 1077 03ff 00       		.space	1
 1078              		.type	de, %object
 1079              		.size	de, 1
 1080              	de:
 1081 0400 00       		.space	1
 1082 0401 00       		.space	1
 1083              		.type	frecuenciaux, %object
 1084              		.size	frecuenciaux, 2
 1085              	frecuenciaux:
 1086 0402 0000     		.space	2
 1087              		.type	de2, %object
 1088              		.size	de2, 1
 1089              	de2:
 1090 0404 00       		.space	1
 1091              		.type	cont, %object
 1092              		.size	cont, 1
 1093              	cont:
 1094 0405 00       		.space	1
 1095              		.text
 1096              	.Letext0:
 1097              		.file 2 "d:\\program files (x86)\\cypress\\psoc creator\\4.2\\psoc creator\\import\\gnu\\arm\\5.4.
 1098              		.file 3 "d:\\program files (x86)\\cypress\\psoc creator\\4.2\\psoc creator\\import\\gnu\\arm\\5.4.
 1099              		.file 4 "Generated_Source\\PSoC5/cytypes.h"
 1100              		.file 5 "Generated_Source\\PSoC5/core_cm3.h"
 1101              		.file 6 "Generated_Source\\PSoC5/LCD.h"
 1102              		.file 7 "Generated_Source\\PSoC5/SW.h"
 1103              		.file 8 "Generated_Source\\PSoC5/Control.h"
 1104              		.file 9 "Generated_Source\\PSoC5/P0.h"
 1105              		.file 10 "Generated_Source\\PSoC5/DMA_OUT_dma.h"
 1106              		.file 11 "Generated_Source\\PSoC5/CYDMAC.H"
 1107              		.file 12 "Generated_Source\\PSoC5/DMA_IN_dma.h"
 1108              		.file 13 "Generated_Source\\PSoC5/ISR_SW.h"
 1109              		.file 14 "Generated_Source\\PSoC5/ISR_Data.h"
 1110              		.file 15 "Generated_Source\\PSoC5/ADC.h"
 1111              		.file 16 "Generated_Source\\PSoC5/DAC.h"
 1112              		.file 17 "d:\\program files (x86)\\cypress\\psoc creator\\4.2\\psoc creator\\import\\gnu\\arm\\5.4