ARM GAS  C:\Users\GITUD\AppData\Local\Temp\ccMaTWoe.s 			page 1


   1              		.syntax unified
   2              		.cpu cortex-m3
   3              		.fpu softvfp
   4              		.eabi_attribute 20, 1
   5              		.eabi_attribute 21, 1
   6              		.eabi_attribute 23, 3
   7              		.eabi_attribute 24, 1
   8              		.eabi_attribute 25, 1
   9              		.eabi_attribute 26, 1
  10              		.eabi_attribute 30, 1
  11              		.eabi_attribute 34, 1
  12              		.eabi_attribute 18, 4
  13              		.thumb
  14              		.syntax unified
  15              		.file	"SW.c"
  16              		.text
  17              	.Ltext0:
  18              		.cfi_sections	.debug_frame
  19              		.section	.text.SW_Write,"ax",%progbits
  20              		.align	2
  21              		.global	SW_Write
  22              		.thumb
  23              		.thumb_func
  24              		.type	SW_Write, %function
  25              	SW_Write:
  26              	.LFB0:
  27              		.file 1 "Generated_Source\\PSoC5\\SW.c"
   1:Generated_Source\PSoC5/SW.c **** /*******************************************************************************
   2:Generated_Source\PSoC5/SW.c **** * File Name: SW.c  
   3:Generated_Source\PSoC5/SW.c **** * Version 2.20
   4:Generated_Source\PSoC5/SW.c **** *
   5:Generated_Source\PSoC5/SW.c **** * Description:
   6:Generated_Source\PSoC5/SW.c **** *  This file contains API to enable firmware control of a Pins component.
   7:Generated_Source\PSoC5/SW.c **** *
   8:Generated_Source\PSoC5/SW.c **** * Note:
   9:Generated_Source\PSoC5/SW.c **** *
  10:Generated_Source\PSoC5/SW.c **** ********************************************************************************
  11:Generated_Source\PSoC5/SW.c **** * Copyright 2008-2015, Cypress Semiconductor Corporation.  All rights reserved.
  12:Generated_Source\PSoC5/SW.c **** * You may use this file only in accordance with the license, terms, conditions, 
  13:Generated_Source\PSoC5/SW.c **** * disclaimers, and limitations in the end user license agreement accompanying 
  14:Generated_Source\PSoC5/SW.c **** * the software package with which this file was provided.
  15:Generated_Source\PSoC5/SW.c **** *******************************************************************************/
  16:Generated_Source\PSoC5/SW.c **** 
  17:Generated_Source\PSoC5/SW.c **** #include "cytypes.h"
  18:Generated_Source\PSoC5/SW.c **** #include "SW.h"
  19:Generated_Source\PSoC5/SW.c **** 
  20:Generated_Source\PSoC5/SW.c **** /* APIs are not generated for P15[7:6] on PSoC 5 */
  21:Generated_Source\PSoC5/SW.c **** #if !(CY_PSOC5A &&\
  22:Generated_Source\PSoC5/SW.c **** 	 SW__PORT == 15 && ((SW__MASK & 0xC0) != 0))
  23:Generated_Source\PSoC5/SW.c **** 
  24:Generated_Source\PSoC5/SW.c **** 
  25:Generated_Source\PSoC5/SW.c **** /*******************************************************************************
  26:Generated_Source\PSoC5/SW.c **** * Function Name: SW_Write
  27:Generated_Source\PSoC5/SW.c **** ****************************************************************************//**
  28:Generated_Source\PSoC5/SW.c **** *
  29:Generated_Source\PSoC5/SW.c **** * \brief Writes the value to the physical port (data output register), masking
  30:Generated_Source\PSoC5/SW.c **** *  and shifting the bits appropriately. 
ARM GAS  C:\Users\GITUD\AppData\Local\Temp\ccMaTWoe.s 			page 2


  31:Generated_Source\PSoC5/SW.c **** *
  32:Generated_Source\PSoC5/SW.c **** * The data output register controls the signal applied to the physical pin in 
  33:Generated_Source\PSoC5/SW.c **** * conjunction with the drive mode parameter. This function avoids changing 
  34:Generated_Source\PSoC5/SW.c **** * other bits in the port by using the appropriate method (read-modify-write or
  35:Generated_Source\PSoC5/SW.c **** * bit banding).
  36:Generated_Source\PSoC5/SW.c **** *
  37:Generated_Source\PSoC5/SW.c **** * <b>Note</b> This function should not be used on a hardware digital output pin 
  38:Generated_Source\PSoC5/SW.c **** * as it is driven by the hardware signal attached to it.
  39:Generated_Source\PSoC5/SW.c **** *
  40:Generated_Source\PSoC5/SW.c **** * \param value
  41:Generated_Source\PSoC5/SW.c **** *  Value to write to the component instance.
  42:Generated_Source\PSoC5/SW.c **** *
  43:Generated_Source\PSoC5/SW.c **** * \return 
  44:Generated_Source\PSoC5/SW.c **** *  None 
  45:Generated_Source\PSoC5/SW.c **** *
  46:Generated_Source\PSoC5/SW.c **** * \sideeffect
  47:Generated_Source\PSoC5/SW.c **** *  If you use read-modify-write operations that are not atomic; the Interrupt 
  48:Generated_Source\PSoC5/SW.c **** *  Service Routines (ISR) can cause corruption of this function. An ISR that 
  49:Generated_Source\PSoC5/SW.c **** *  interrupts this function and performs writes to the Pins component data 
  50:Generated_Source\PSoC5/SW.c **** *  register can cause corrupted port data. To avoid this issue, you should 
  51:Generated_Source\PSoC5/SW.c **** *  either use the Per-Pin APIs (primary method) or disable interrupts around 
  52:Generated_Source\PSoC5/SW.c **** *  this function.
  53:Generated_Source\PSoC5/SW.c **** *
  54:Generated_Source\PSoC5/SW.c **** * \funcusage
  55:Generated_Source\PSoC5/SW.c **** *  \snippet SW_SUT.c usage_SW_Write
  56:Generated_Source\PSoC5/SW.c **** *******************************************************************************/
  57:Generated_Source\PSoC5/SW.c **** void SW_Write(uint8 value)
  58:Generated_Source\PSoC5/SW.c **** {
  28              		.loc 1 58 0
  29              		.cfi_startproc
  30              		@ args = 0, pretend = 0, frame = 0
  31              		@ frame_needed = 0, uses_anonymous_args = 0
  32              		@ link register save eliminated.
  33              	.LVL0:
  59:Generated_Source\PSoC5/SW.c ****     uint8 staticBits = (SW_DR & (uint8)(~SW_MASK));
  34              		.loc 1 59 0
  35 0000 044A     		ldr	r2, .L2
  36 0002 1378     		ldrb	r3, [r2]	@ zero_extendqisi2
  37 0004 03F00F03 		and	r3, r3, #15
  38              	.LVL1:
  60:Generated_Source\PSoC5/SW.c ****     SW_DR = staticBits | ((uint8)(value << SW_SHIFT) & SW_MASK);
  39              		.loc 1 60 0
  40 0008 0001     		lsls	r0, r0, #4
  41              	.LVL2:
  42 000a C0B2     		uxtb	r0, r0
  43 000c 1843     		orrs	r0, r0, r3
  44 000e 1070     		strb	r0, [r2]
  45 0010 7047     		bx	lr
  46              	.L3:
  47 0012 00BF     		.align	2
  48              	.L2:
  49 0014 00510040 		.word	1073762560
  50              		.cfi_endproc
  51              	.LFE0:
  52              		.size	SW_Write, .-SW_Write
  53              		.section	.text.SW_SetDriveMode,"ax",%progbits
  54              		.align	2
ARM GAS  C:\Users\GITUD\AppData\Local\Temp\ccMaTWoe.s 			page 3


  55              		.global	SW_SetDriveMode
  56              		.thumb
  57              		.thumb_func
  58              		.type	SW_SetDriveMode, %function
  59              	SW_SetDriveMode:
  60              	.LFB1:
  61:Generated_Source\PSoC5/SW.c **** }
  62:Generated_Source\PSoC5/SW.c **** 
  63:Generated_Source\PSoC5/SW.c **** 
  64:Generated_Source\PSoC5/SW.c **** /*******************************************************************************
  65:Generated_Source\PSoC5/SW.c **** * Function Name: SW_SetDriveMode
  66:Generated_Source\PSoC5/SW.c **** ****************************************************************************//**
  67:Generated_Source\PSoC5/SW.c **** *
  68:Generated_Source\PSoC5/SW.c **** * \brief Sets the drive mode for each of the Pins component's pins.
  69:Generated_Source\PSoC5/SW.c **** * 
  70:Generated_Source\PSoC5/SW.c **** * <b>Note</b> This affects all pins in the Pins component instance. Use the
  71:Generated_Source\PSoC5/SW.c **** * Per-Pin APIs if you wish to control individual pin's drive modes.
  72:Generated_Source\PSoC5/SW.c **** *
  73:Generated_Source\PSoC5/SW.c **** * \param mode
  74:Generated_Source\PSoC5/SW.c **** *  Mode for the selected signals. Valid options are documented in 
  75:Generated_Source\PSoC5/SW.c **** *  \ref driveMode.
  76:Generated_Source\PSoC5/SW.c **** *
  77:Generated_Source\PSoC5/SW.c **** * \return
  78:Generated_Source\PSoC5/SW.c **** *  None
  79:Generated_Source\PSoC5/SW.c **** *
  80:Generated_Source\PSoC5/SW.c **** * \sideeffect
  81:Generated_Source\PSoC5/SW.c **** *  If you use read-modify-write operations that are not atomic, the ISR can
  82:Generated_Source\PSoC5/SW.c **** *  cause corruption of this function. An ISR that interrupts this function 
  83:Generated_Source\PSoC5/SW.c **** *  and performs writes to the Pins component Drive Mode registers can cause 
  84:Generated_Source\PSoC5/SW.c **** *  corrupted port data. To avoid this issue, you should either use the Per-Pin
  85:Generated_Source\PSoC5/SW.c **** *  APIs (primary method) or disable interrupts around this function.
  86:Generated_Source\PSoC5/SW.c **** *
  87:Generated_Source\PSoC5/SW.c **** * \funcusage
  88:Generated_Source\PSoC5/SW.c **** *  \snippet SW_SUT.c usage_SW_SetDriveMode
  89:Generated_Source\PSoC5/SW.c **** *******************************************************************************/
  90:Generated_Source\PSoC5/SW.c **** void SW_SetDriveMode(uint8 mode)
  91:Generated_Source\PSoC5/SW.c **** {
  61              		.loc 1 91 0
  62              		.cfi_startproc
  63              		@ args = 0, pretend = 0, frame = 0
  64              		@ frame_needed = 0, uses_anonymous_args = 0
  65              		@ link register save eliminated.
  66              	.LVL3:
  92:Generated_Source\PSoC5/SW.c **** 	CyPins_SetPinDriveMode(SW_0, mode);
  67              		.loc 1 92 0
  68 0000 0D4A     		ldr	r2, .L5
  69 0002 1378     		ldrb	r3, [r2]	@ zero_extendqisi2
  70 0004 00F00E00 		and	r0, r0, #14
  71              	.LVL4:
  72 0008 03F0F103 		and	r3, r3, #241
  73 000c 0343     		orrs	r3, r3, r0
  74 000e 1370     		strb	r3, [r2]
  93:Generated_Source\PSoC5/SW.c **** 	CyPins_SetPinDriveMode(SW_1, mode);
  75              		.loc 1 93 0
  76 0010 0132     		adds	r2, r2, #1
  77 0012 1378     		ldrb	r3, [r2]	@ zero_extendqisi2
  78 0014 03F0F103 		and	r3, r3, #241
ARM GAS  C:\Users\GITUD\AppData\Local\Temp\ccMaTWoe.s 			page 4


  79 0018 0343     		orrs	r3, r3, r0
  80 001a 1370     		strb	r3, [r2]
  94:Generated_Source\PSoC5/SW.c **** 	CyPins_SetPinDriveMode(SW_2, mode);
  81              		.loc 1 94 0
  82 001c 0132     		adds	r2, r2, #1
  83 001e 1378     		ldrb	r3, [r2]	@ zero_extendqisi2
  84 0020 03F0F103 		and	r3, r3, #241
  85 0024 0343     		orrs	r3, r3, r0
  86 0026 1370     		strb	r3, [r2]
  95:Generated_Source\PSoC5/SW.c **** 	CyPins_SetPinDriveMode(SW_3, mode);
  87              		.loc 1 95 0
  88 0028 0132     		adds	r2, r2, #1
  89 002a 1378     		ldrb	r3, [r2]	@ zero_extendqisi2
  90 002c 03F0F103 		and	r3, r3, #241
  91 0030 1843     		orrs	r0, r0, r3
  92 0032 1070     		strb	r0, [r2]
  93 0034 7047     		bx	lr
  94              	.L6:
  95 0036 00BF     		.align	2
  96              	.L5:
  97 0038 04500040 		.word	1073762308
  98              		.cfi_endproc
  99              	.LFE1:
 100              		.size	SW_SetDriveMode, .-SW_SetDriveMode
 101              		.section	.text.SW_Read,"ax",%progbits
 102              		.align	2
 103              		.global	SW_Read
 104              		.thumb
 105              		.thumb_func
 106              		.type	SW_Read, %function
 107              	SW_Read:
 108              	.LFB2:
  96:Generated_Source\PSoC5/SW.c **** }
  97:Generated_Source\PSoC5/SW.c **** 
  98:Generated_Source\PSoC5/SW.c **** 
  99:Generated_Source\PSoC5/SW.c **** /*******************************************************************************
 100:Generated_Source\PSoC5/SW.c **** * Function Name: SW_Read
 101:Generated_Source\PSoC5/SW.c **** ****************************************************************************//**
 102:Generated_Source\PSoC5/SW.c **** *
 103:Generated_Source\PSoC5/SW.c **** * \brief Reads the associated physical port (pin status register) and masks 
 104:Generated_Source\PSoC5/SW.c **** *  the required bits according to the width and bit position of the component
 105:Generated_Source\PSoC5/SW.c **** *  instance. 
 106:Generated_Source\PSoC5/SW.c **** *
 107:Generated_Source\PSoC5/SW.c **** * The pin's status register returns the current logic level present on the 
 108:Generated_Source\PSoC5/SW.c **** * physical pin.
 109:Generated_Source\PSoC5/SW.c **** *
 110:Generated_Source\PSoC5/SW.c **** * \return 
 111:Generated_Source\PSoC5/SW.c **** *  The current value for the pins in the component as a right justified number.
 112:Generated_Source\PSoC5/SW.c **** *
 113:Generated_Source\PSoC5/SW.c **** * \funcusage
 114:Generated_Source\PSoC5/SW.c **** *  \snippet SW_SUT.c usage_SW_Read  
 115:Generated_Source\PSoC5/SW.c **** *******************************************************************************/
 116:Generated_Source\PSoC5/SW.c **** uint8 SW_Read(void)
 117:Generated_Source\PSoC5/SW.c **** {
 109              		.loc 1 117 0
 110              		.cfi_startproc
 111              		@ args = 0, pretend = 0, frame = 0
ARM GAS  C:\Users\GITUD\AppData\Local\Temp\ccMaTWoe.s 			page 5


 112              		@ frame_needed = 0, uses_anonymous_args = 0
 113              		@ link register save eliminated.
 118:Generated_Source\PSoC5/SW.c ****     return (SW_PS & SW_MASK) >> SW_SHIFT;
 114              		.loc 1 118 0
 115 0000 014B     		ldr	r3, .L8
 116 0002 1878     		ldrb	r0, [r3]	@ zero_extendqisi2
 119:Generated_Source\PSoC5/SW.c **** }
 117              		.loc 1 119 0
 118 0004 0009     		lsrs	r0, r0, #4
 119 0006 7047     		bx	lr
 120              	.L9:
 121              		.align	2
 122              	.L8:
 123 0008 01510040 		.word	1073762561
 124              		.cfi_endproc
 125              	.LFE2:
 126              		.size	SW_Read, .-SW_Read
 127              		.section	.text.SW_ReadDataReg,"ax",%progbits
 128              		.align	2
 129              		.global	SW_ReadDataReg
 130              		.thumb
 131              		.thumb_func
 132              		.type	SW_ReadDataReg, %function
 133              	SW_ReadDataReg:
 134              	.LFB3:
 120:Generated_Source\PSoC5/SW.c **** 
 121:Generated_Source\PSoC5/SW.c **** 
 122:Generated_Source\PSoC5/SW.c **** /*******************************************************************************
 123:Generated_Source\PSoC5/SW.c **** * Function Name: SW_ReadDataReg
 124:Generated_Source\PSoC5/SW.c **** ****************************************************************************//**
 125:Generated_Source\PSoC5/SW.c **** *
 126:Generated_Source\PSoC5/SW.c **** * \brief Reads the associated physical port's data output register and masks 
 127:Generated_Source\PSoC5/SW.c **** *  the correct bits according to the width and bit position of the component 
 128:Generated_Source\PSoC5/SW.c **** *  instance. 
 129:Generated_Source\PSoC5/SW.c **** *
 130:Generated_Source\PSoC5/SW.c **** * The data output register controls the signal applied to the physical pin in 
 131:Generated_Source\PSoC5/SW.c **** * conjunction with the drive mode parameter. This is not the same as the 
 132:Generated_Source\PSoC5/SW.c **** * preferred SW_Read() API because the 
 133:Generated_Source\PSoC5/SW.c **** * SW_ReadDataReg() reads the data register instead of the status 
 134:Generated_Source\PSoC5/SW.c **** * register. For output pins this is a useful function to determine the value 
 135:Generated_Source\PSoC5/SW.c **** * just written to the pin.
 136:Generated_Source\PSoC5/SW.c **** *
 137:Generated_Source\PSoC5/SW.c **** * \return 
 138:Generated_Source\PSoC5/SW.c **** *  The current value of the data register masked and shifted into a right 
 139:Generated_Source\PSoC5/SW.c **** *  justified number for the component instance.
 140:Generated_Source\PSoC5/SW.c **** *
 141:Generated_Source\PSoC5/SW.c **** * \funcusage
 142:Generated_Source\PSoC5/SW.c **** *  \snippet SW_SUT.c usage_SW_ReadDataReg 
 143:Generated_Source\PSoC5/SW.c **** *******************************************************************************/
 144:Generated_Source\PSoC5/SW.c **** uint8 SW_ReadDataReg(void)
 145:Generated_Source\PSoC5/SW.c **** {
 135              		.loc 1 145 0
 136              		.cfi_startproc
 137              		@ args = 0, pretend = 0, frame = 0
 138              		@ frame_needed = 0, uses_anonymous_args = 0
 139              		@ link register save eliminated.
 146:Generated_Source\PSoC5/SW.c ****     return (SW_DR & SW_MASK) >> SW_SHIFT;
ARM GAS  C:\Users\GITUD\AppData\Local\Temp\ccMaTWoe.s 			page 6


 140              		.loc 1 146 0
 141 0000 014B     		ldr	r3, .L11
 142 0002 1878     		ldrb	r0, [r3]	@ zero_extendqisi2
 147:Generated_Source\PSoC5/SW.c **** }
 143              		.loc 1 147 0
 144 0004 0009     		lsrs	r0, r0, #4
 145 0006 7047     		bx	lr
 146              	.L12:
 147              		.align	2
 148              	.L11:
 149 0008 00510040 		.word	1073762560
 150              		.cfi_endproc
 151              	.LFE3:
 152              		.size	SW_ReadDataReg, .-SW_ReadDataReg
 153              		.section	.text.SW_SetInterruptMode,"ax",%progbits
 154              		.align	2
 155              		.global	SW_SetInterruptMode
 156              		.thumb
 157              		.thumb_func
 158              		.type	SW_SetInterruptMode, %function
 159              	SW_SetInterruptMode:
 160              	.LFB4:
 148:Generated_Source\PSoC5/SW.c **** 
 149:Generated_Source\PSoC5/SW.c **** 
 150:Generated_Source\PSoC5/SW.c **** /* If interrupt is connected for this Pins component */ 
 151:Generated_Source\PSoC5/SW.c **** #if defined(SW_INTSTAT) 
 152:Generated_Source\PSoC5/SW.c **** 
 153:Generated_Source\PSoC5/SW.c ****     /*******************************************************************************
 154:Generated_Source\PSoC5/SW.c ****     * Function Name: SW_SetInterruptMode
 155:Generated_Source\PSoC5/SW.c ****     ****************************************************************************//**
 156:Generated_Source\PSoC5/SW.c ****     *
 157:Generated_Source\PSoC5/SW.c ****     * \brief Configures the interrupt mode for each of the Pins component's
 158:Generated_Source\PSoC5/SW.c ****     *  pins. Alternatively you may set the interrupt mode for all the pins
 159:Generated_Source\PSoC5/SW.c ****     *  specified in the Pins component.
 160:Generated_Source\PSoC5/SW.c ****     *
 161:Generated_Source\PSoC5/SW.c ****     *  <b>Note</b> The interrupt is port-wide and therefore any enabled pin
 162:Generated_Source\PSoC5/SW.c ****     *  interrupt may trigger it.
 163:Generated_Source\PSoC5/SW.c ****     *
 164:Generated_Source\PSoC5/SW.c ****     * \param position
 165:Generated_Source\PSoC5/SW.c ****     *  The pin position as listed in the Pins component. You may OR these to be 
 166:Generated_Source\PSoC5/SW.c ****     *  able to configure the interrupt mode of multiple pins within a Pins 
 167:Generated_Source\PSoC5/SW.c ****     *  component. Or you may use SW_INTR_ALL to configure the
 168:Generated_Source\PSoC5/SW.c ****     *  interrupt mode of all the pins in the Pins component.       
 169:Generated_Source\PSoC5/SW.c ****     *  - SW_0_INTR       (First pin in the list)
 170:Generated_Source\PSoC5/SW.c ****     *  - SW_1_INTR       (Second pin in the list)
 171:Generated_Source\PSoC5/SW.c ****     *  - ...
 172:Generated_Source\PSoC5/SW.c ****     *  - SW_INTR_ALL     (All pins in Pins component)
 173:Generated_Source\PSoC5/SW.c ****     *
 174:Generated_Source\PSoC5/SW.c ****     * \param mode
 175:Generated_Source\PSoC5/SW.c ****     *  Interrupt mode for the selected pins. Valid options are documented in
 176:Generated_Source\PSoC5/SW.c ****     *  \ref intrMode.
 177:Generated_Source\PSoC5/SW.c ****     *
 178:Generated_Source\PSoC5/SW.c ****     * \return 
 179:Generated_Source\PSoC5/SW.c ****     *  None
 180:Generated_Source\PSoC5/SW.c ****     *  
 181:Generated_Source\PSoC5/SW.c ****     * \sideeffect
 182:Generated_Source\PSoC5/SW.c ****     *  It is recommended that the interrupt be disabled before calling this 
ARM GAS  C:\Users\GITUD\AppData\Local\Temp\ccMaTWoe.s 			page 7


 183:Generated_Source\PSoC5/SW.c ****     *  function to avoid unintended interrupt requests. Note that the interrupt
 184:Generated_Source\PSoC5/SW.c ****     *  type is port wide, and therefore will trigger for any enabled pin on the 
 185:Generated_Source\PSoC5/SW.c ****     *  port.
 186:Generated_Source\PSoC5/SW.c ****     *
 187:Generated_Source\PSoC5/SW.c ****     * \funcusage
 188:Generated_Source\PSoC5/SW.c ****     *  \snippet SW_SUT.c usage_SW_SetInterruptMode
 189:Generated_Source\PSoC5/SW.c ****     *******************************************************************************/
 190:Generated_Source\PSoC5/SW.c ****     void SW_SetInterruptMode(uint16 position, uint16 mode)
 191:Generated_Source\PSoC5/SW.c ****     {
 161              		.loc 1 191 0
 162              		.cfi_startproc
 163              		@ args = 0, pretend = 0, frame = 0
 164              		@ frame_needed = 0, uses_anonymous_args = 0
 165              		@ link register save eliminated.
 166              	.LVL5:
 192:Generated_Source\PSoC5/SW.c **** 		if((position & SW_0_INTR) != 0u) 
 167              		.loc 1 192 0
 168 0000 00F01003 		and	r3, r0, #16
 169 0004 9BB2     		uxth	r3, r3
 170 0006 13B1     		cbz	r3, .L14
 193:Generated_Source\PSoC5/SW.c **** 		{ 
 194:Generated_Source\PSoC5/SW.c **** 			 SW_0_INTTYPE_REG = (uint8)mode; 
 171              		.loc 1 194 0
 172 0008 CBB2     		uxtb	r3, r1
 173 000a 0C4A     		ldr	r2, .L18
 174 000c 1370     		strb	r3, [r2]
 175              	.L14:
 195:Generated_Source\PSoC5/SW.c **** 		} 
 196:Generated_Source\PSoC5/SW.c **** 		if((position & SW_1_INTR) != 0u) 
 176              		.loc 1 196 0
 177 000e 00F02003 		and	r3, r0, #32
 178 0012 9BB2     		uxth	r3, r3
 179 0014 13B1     		cbz	r3, .L15
 197:Generated_Source\PSoC5/SW.c **** 		{ 
 198:Generated_Source\PSoC5/SW.c **** 			 SW_1_INTTYPE_REG = (uint8)mode; 
 180              		.loc 1 198 0
 181 0016 CBB2     		uxtb	r3, r1
 182 0018 094A     		ldr	r2, .L18+4
 183 001a 1370     		strb	r3, [r2]
 184              	.L15:
 199:Generated_Source\PSoC5/SW.c **** 		} 
 200:Generated_Source\PSoC5/SW.c **** 		if((position & SW_2_INTR) != 0u) 
 185              		.loc 1 200 0
 186 001c 00F04003 		and	r3, r0, #64
 187 0020 9BB2     		uxth	r3, r3
 188 0022 13B1     		cbz	r3, .L16
 201:Generated_Source\PSoC5/SW.c **** 		{ 
 202:Generated_Source\PSoC5/SW.c **** 			 SW_2_INTTYPE_REG = (uint8)mode; 
 189              		.loc 1 202 0
 190 0024 CBB2     		uxtb	r3, r1
 191 0026 074A     		ldr	r2, .L18+8
 192 0028 1370     		strb	r3, [r2]
 193              	.L16:
 203:Generated_Source\PSoC5/SW.c **** 		} 
 204:Generated_Source\PSoC5/SW.c **** 		if((position & SW_3_INTR) != 0u) 
 194              		.loc 1 204 0
 195 002a 00F08000 		and	r0, r0, #128
ARM GAS  C:\Users\GITUD\AppData\Local\Temp\ccMaTWoe.s 			page 8


 196              	.LVL6:
 197 002e 80B2     		uxth	r0, r0
 198 0030 10B1     		cbz	r0, .L13
 205:Generated_Source\PSoC5/SW.c **** 		{ 
 206:Generated_Source\PSoC5/SW.c **** 			 SW_3_INTTYPE_REG = (uint8)mode; 
 199              		.loc 1 206 0
 200 0032 C9B2     		uxtb	r1, r1
 201              	.LVL7:
 202 0034 044B     		ldr	r3, .L18+12
 203 0036 1970     		strb	r1, [r3]
 204              	.L13:
 205 0038 7047     		bx	lr
 206              	.L19:
 207 003a 00BF     		.align	2
 208              	.L18:
 209 003c 04450040 		.word	1073759492
 210 0040 05450040 		.word	1073759493
 211 0044 06450040 		.word	1073759494
 212 0048 07450040 		.word	1073759495
 213              		.cfi_endproc
 214              	.LFE4:
 215              		.size	SW_SetInterruptMode, .-SW_SetInterruptMode
 216              		.section	.text.SW_ClearInterrupt,"ax",%progbits
 217              		.align	2
 218              		.global	SW_ClearInterrupt
 219              		.thumb
 220              		.thumb_func
 221              		.type	SW_ClearInterrupt, %function
 222              	SW_ClearInterrupt:
 223              	.LFB5:
 207:Generated_Source\PSoC5/SW.c **** 		}
 208:Generated_Source\PSoC5/SW.c ****     }
 209:Generated_Source\PSoC5/SW.c ****     
 210:Generated_Source\PSoC5/SW.c ****     
 211:Generated_Source\PSoC5/SW.c ****     /*******************************************************************************
 212:Generated_Source\PSoC5/SW.c ****     * Function Name: SW_ClearInterrupt
 213:Generated_Source\PSoC5/SW.c ****     ****************************************************************************//**
 214:Generated_Source\PSoC5/SW.c ****     *
 215:Generated_Source\PSoC5/SW.c ****     * \brief Clears any active interrupts attached with the component and returns 
 216:Generated_Source\PSoC5/SW.c ****     *  the value of the interrupt status register allowing determination of which
 217:Generated_Source\PSoC5/SW.c ****     *  pins generated an interrupt event.
 218:Generated_Source\PSoC5/SW.c ****     *
 219:Generated_Source\PSoC5/SW.c ****     * \return 
 220:Generated_Source\PSoC5/SW.c ****     *  The right-shifted current value of the interrupt status register. Each pin 
 221:Generated_Source\PSoC5/SW.c ****     *  has one bit set if it generated an interrupt event. For example, bit 0 is 
 222:Generated_Source\PSoC5/SW.c ****     *  for pin 0 and bit 1 is for pin 1 of the Pins component.
 223:Generated_Source\PSoC5/SW.c ****     *  
 224:Generated_Source\PSoC5/SW.c ****     * \sideeffect
 225:Generated_Source\PSoC5/SW.c ****     *  Clears all bits of the physical port's interrupt status register, not just
 226:Generated_Source\PSoC5/SW.c ****     *  those associated with the Pins component.
 227:Generated_Source\PSoC5/SW.c ****     *
 228:Generated_Source\PSoC5/SW.c ****     * \funcusage
 229:Generated_Source\PSoC5/SW.c ****     *  \snippet SW_SUT.c usage_SW_ClearInterrupt
 230:Generated_Source\PSoC5/SW.c ****     *******************************************************************************/
 231:Generated_Source\PSoC5/SW.c ****     uint8 SW_ClearInterrupt(void)
 232:Generated_Source\PSoC5/SW.c ****     {
 224              		.loc 1 232 0
ARM GAS  C:\Users\GITUD\AppData\Local\Temp\ccMaTWoe.s 			page 9


 225              		.cfi_startproc
 226              		@ args = 0, pretend = 0, frame = 0
 227              		@ frame_needed = 0, uses_anonymous_args = 0
 228              		@ link register save eliminated.
 233:Generated_Source\PSoC5/SW.c ****         return (SW_INTSTAT & SW_MASK) >> SW_SHIFT;
 229              		.loc 1 233 0
 230 0000 014B     		ldr	r3, .L21
 231 0002 1878     		ldrb	r0, [r3]	@ zero_extendqisi2
 234:Generated_Source\PSoC5/SW.c ****     }
 232              		.loc 1 234 0
 233 0004 0009     		lsrs	r0, r0, #4
 234 0006 7047     		bx	lr
 235              	.L22:
 236              		.align	2
 237              	.L21:
 238 0008 80450040 		.word	1073759616
 239              		.cfi_endproc
 240              	.LFE5:
 241              		.size	SW_ClearInterrupt, .-SW_ClearInterrupt
 242              		.text
 243              	.Letext0:
 244              		.file 2 "Generated_Source\\PSoC5\\cytypes.h"